
Discarded input sections

 .data          0x0000000000000000        0x0 arch/arm/cpu/armv8/start.o
 .bss           0x0000000000000000        0x0 arch/arm/cpu/armv8/start.o
 .text.sdelay   0x0000000000000000        0xc arch/arm/cpu/armv8/built-in.o
 .text.timer_read_counter
                0x0000000000000000        0xc arch/arm/cpu/armv8/built-in.o
 .text.usec2ticks
                0x0000000000000000       0x44 arch/arm/cpu/armv8/built-in.o
 .text.arch_get_page_table
                0x0000000000000000       0x20 arch/arm/cpu/armv8/built-in.o
 .text.mmu_set_region_dcache_behaviour
                0x0000000000000000      0x118 arch/arm/cpu/armv8/built-in.o
 .text.psci_update_dt
                0x0000000000000000        0x8 arch/arm/cpu/armv8/built-in.o
 .text.sscg_pll_init
                0x0000000000000000       0xf8 arch/arm/cpu/armv8/built-in.o
 .text.mxs_set_lcdclk
                0x0000000000000000       0x24 arch/arm/cpu/armv8/built-in.o
 .text.dram_pll_init
                0x0000000000000000      0x134 arch/arm/cpu/armv8/built-in.o
 .text.clock_root_cfg
                0x0000000000000000      0x120 arch/arm/cpu/armv8/built-in.o
 .text.enable_tzc380
                0x0000000000000000       0x2c arch/arm/cpu/armv8/built-in.o
 .text.board_mmc_get_env_dev
                0x0000000000000000        0x8 arch/arm/cpu/armv8/built-in.o
 .rodata.arch_get_page_table.str1.1
                0x0000000000000000       0x1e arch/arm/cpu/armv8/built-in.o
 .rodata.mmu_set_region_dcache_behaviour.str1.1
                0x0000000000000000       0x4e arch/arm/cpu/armv8/built-in.o
 .rodata.clock_root_cfg.str1.1
                0x0000000000000000       0x21 arch/arm/cpu/armv8/built-in.o
 .data          0x0000000000000000        0x0 arch/arm/cpu/armv8/built-in.o
 .bss           0x0000000000000000        0x0 arch/arm/cpu/armv8/built-in.o
 .text          0x0000000000000000        0x0 arch/arm/imx-common/built-in.o
 .text.imx_iomux_set_gpr_register
                0x0000000000000000       0x4c arch/arm/imx-common/built-in.o
 .text.__arch_auxiliary_core_up
                0x0000000000000000        0x8 arch/arm/imx-common/built-in.o
 .text.__arch_auxiliary_core_check_up
                0x0000000000000000        0x8 arch/arm/imx-common/built-in.o
 .text.force_idle_bus
                0x0000000000000000      0x1d8 arch/arm/imx-common/built-in.o
 .text.setup_i2c
                0x0000000000000000       0xc8 arch/arm/imx-common/built-in.o
 .text.get_imx_reset_cause
                0x0000000000000000        0xc arch/arm/imx-common/built-in.o
 .text.cpu_eth_init
                0x0000000000000000        0x4 arch/arm/imx-common/built-in.o
 .text.cpu_mmc_init
                0x0000000000000000        0x4 arch/arm/imx-common/built-in.o
 .text.mxs_wait_mask_set
                0x0000000000000000       0x58 arch/arm/imx-common/built-in.o
 .text.mxs_wait_mask_clr
                0x0000000000000000       0x58 arch/arm/imx-common/built-in.o
 .text.mxs_reset_block
                0x0000000000000000       0xbc arch/arm/imx-common/built-in.o
 .rodata.__func__.6323
                0x0000000000000000        0xf arch/arm/imx-common/built-in.o
 .rodata.force_idle_bus.str1.1
                0x0000000000000000       0x53 arch/arm/imx-common/built-in.o
 .rodata.setup_i2c.str1.1
                0x0000000000000000       0x18 arch/arm/imx-common/built-in.o
 .data          0x0000000000000000        0x0 arch/arm/imx-common/built-in.o
 .bss           0x0000000000000000        0x0 arch/arm/imx-common/built-in.o
 .text.setup_board_tags
                0x0000000000000000        0x4 arch/arm/lib/built-in.o
 .text.armv7_boot_nonsec_default
                0x0000000000000000        0x8 arch/arm/lib/built-in.o
 .text.enable_caches
                0x0000000000000000        0xc arch/arm/lib/built-in.o
 .text.invalidate_dcache_range
                0x0000000000000000        0x4 arch/arm/lib/built-in.o
 .text.flush_dcache_range
                0x0000000000000000        0x4 arch/arm/lib/built-in.o
 .text.flush_dcache_all
                0x0000000000000000        0xc arch/arm/lib/built-in.o
 .text.check_cache_range
                0x0000000000000000       0x40 arch/arm/lib/built-in.o
 .text.fdt_psci
                0x0000000000000000        0x8 arch/arm/lib/built-in.o
 .rodata.check_cache_range.str1.1
                0x0000000000000000       0x35 arch/arm/lib/built-in.o
 .rodata.enable_caches.str1.1
                0x0000000000000000       0x1d arch/arm/lib/built-in.o
 .data          0x0000000000000000        0x0 arch/arm/lib/built-in.o
 .__efi_runtime_rel_start
                0x0000000000000000        0x0 arch/arm/lib/built-in.o
 .__efi_runtime_rel_stop
                0x0000000000000000        0x0 arch/arm/lib/built-in.o
 .__efi_runtime_start
                0x0000000000000000        0x0 arch/arm/lib/built-in.o
 .__efi_runtime_stop
                0x0000000000000000        0x0 arch/arm/lib/built-in.o
 .__end         0x0000000000000000        0x0 arch/arm/lib/built-in.o
 .__secure_end  0x0000000000000000        0x0 arch/arm/lib/built-in.o
 .__secure_stack_end
                0x0000000000000000        0x0 arch/arm/lib/built-in.o
 .__secure_stack_start
                0x0000000000000000        0x0 arch/arm/lib/built-in.o
 .__secure_start
                0x0000000000000000        0x0 arch/arm/lib/built-in.o
 .bss           0x0000000000000000        0x0 arch/arm/lib/built-in.o
 .text          0x0000000000000000        0x0 board/freescale/common/built-in.o
 .text.pfuze_mode_init
                0x0000000000000000       0xf0 board/freescale/common/built-in.o
 .text.pfuze_common_init
                0x0000000000000000       0xf0 board/freescale/common/built-in.o
 .rodata.pfuze_common_init.str1.1
                0x0000000000000000       0x32 board/freescale/common/built-in.o
 .rodata.pfuze_mode_init.str1.1
                0x0000000000000000       0x4a board/freescale/common/built-in.o
 .data          0x0000000000000000        0x0 board/freescale/common/built-in.o
 .bss           0x0000000000000000        0x0 board/freescale/common/built-in.o
 .text          0x0000000000000000        0x0 board/freescale/imx8mq_evk/built-in.o
 .data          0x0000000000000000        0x0 board/freescale/imx8mq_evk/built-in.o
 .bss           0x0000000000000000        0x0 board/freescale/imx8mq_evk/built-in.o
 .text          0x0000000000000000        0x0 cmd/built-in.o
 .text.invalidate_icache_all
                0x0000000000000000        0xc cmd/built-in.o
 .text.flush_dcache_all
                0x0000000000000000        0xc cmd/built-in.o
 .text.name_to_gpio
                0x0000000000000000       0x1c cmd/built-in.o
 .text.i2c_init_board
                0x0000000000000000        0x4 cmd/built-in.o
 .rodata.flush_dcache_all.str1.1
                0x0000000000000000       0x2e cmd/built-in.o
 .rodata.invalidate_icache_all.str1.1
                0x0000000000000000       0x33 cmd/built-in.o
 .data          0x0000000000000000        0x0 cmd/built-in.o
 .bss           0x0000000000000000        0x0 cmd/built-in.o
 .text          0x0000000000000000        0x0 common/built-in.o
 .text.hash_finish_crc32
                0x0000000000000000       0x38 common/built-in.o
 .text.hash_update_crc32
                0x0000000000000000       0x34 common/built-in.o
 .text.hash_init_crc32
                0x0000000000000000       0x30 common/built-in.o
 .text.hash_finish_sha256
                0x0000000000000000       0x48 common/built-in.o
 .text.hash_update_sha256
                0x0000000000000000       0x24 common/built-in.o
 .text.hash_init_sha256
                0x0000000000000000       0x34 common/built-in.o
 .text.hash_finish_sha1
                0x0000000000000000       0x48 common/built-in.o
 .text.hash_update_sha1
                0x0000000000000000       0x24 common/built-in.o
 .text.hash_init_sha1
                0x0000000000000000       0x34 common/built-in.o
 .text.hash_lookup_algo
                0x0000000000000000       0x78 common/built-in.o
 .text.hash_progressive_lookup_algo
                0x0000000000000000       0x90 common/built-in.o
 .text.hash_parse_string
                0x0000000000000000       0x7c common/built-in.o
 .text.hash_block
                0x0000000000000000       0x88 common/built-in.o
 .text.unset_local_var
                0x0000000000000000       0xbc common/built-in.o
 .text.arch_cpu_init
                0x0000000000000000        0x8 common/built-in.o
 .text.coloured_LED_init
                0x0000000000000000        0x4 common/built-in.o
 .text.red_led_on
                0x0000000000000000        0x4 common/built-in.o
 .text.red_led_off
                0x0000000000000000        0x4 common/built-in.o
 .text.green_led_on
                0x0000000000000000        0x4 common/built-in.o
 .text.green_led_off
                0x0000000000000000        0x4 common/built-in.o
 .text.yellow_led_on
                0x0000000000000000        0x4 common/built-in.o
 .text.yellow_led_off
                0x0000000000000000        0x4 common/built-in.o
 .text.blue_led_on
                0x0000000000000000        0x4 common/built-in.o
 .text.blue_led_off
                0x0000000000000000        0x4 common/built-in.o
 .text.arch_reserve_stacks
                0x0000000000000000        0x8 common/built-in.o
 .text.board_flash_wp_on
                0x0000000000000000        0x8 common/built-in.o
 .text.fixup_cpu
                0x0000000000000000        0x8 common/built-in.o
 .text.arch_preboot_os
                0x0000000000000000        0x4 common/built-in.o
 .text.env_flags_parse_varaccess_from_binflags
                0x0000000000000000       0x60 common/built-in.o
 .text.mmc_get_env_dev
                0x0000000000000000        0x8 common/built-in.o
 .text.fdt_read_prop
                0x0000000000000000       0x48 common/built-in.o
 .text.fdt_getprop_u32_default_node
                0x0000000000000000       0x4c common/built-in.o
 .text.fdt_getprop_u32_default
                0x0000000000000000       0x5c common/built-in.o
 .text.do_fixup_by_path_u32
                0x0000000000000000       0x28 common/built-in.o
 .text.do_fixup_by_prop
                0x0000000000000000       0xc8 common/built-in.o
 .text.do_fixup_by_prop_u32
                0x0000000000000000       0x28 common/built-in.o
 .text.do_fixup_by_compat
                0x0000000000000000       0xa8 common/built-in.o
 .text.do_fixup_by_compat_u32
                0x0000000000000000       0x28 common/built-in.o
 .text.fdt_del_node_and_alias
                0x0000000000000000       0x5c common/built-in.o
 .text.fdt_node_offset_by_compat_reg
                0x0000000000000000       0xa0 common/built-in.o
 .text.fdt_alloc_phandle
                0x0000000000000000       0x6c common/built-in.o
 .text.fdt_set_phandle
                0x0000000000000000       0x6c common/built-in.o
 .text.fdt_create_phandle
                0x0000000000000000       0x78 common/built-in.o
 .text.fdt_set_node_status
                0x0000000000000000       0xd8 common/built-in.o
 .text.fdt_set_status_by_alias
                0x0000000000000000       0x40 common/built-in.o
 .text.fdt_add_edid
                0x0000000000000000       0xc0 common/built-in.o
 .text.fdt_verify_alias_address
                0x0000000000000000       0xdc common/built-in.o
 .text.fdt_get_base_address
                0x0000000000000000       0x64 common/built-in.o
 .text.fdt_read_range
                0x0000000000000000      0x154 common/built-in.o
 .text.fdt_setup_simplefb_node
                0x0000000000000000      0x1fc common/built-in.o
 .text.fdt_fixup_display
                0x0000000000000000       0xe8 common/built-in.o
 .text.mdio_register_seq
                0x0000000000000000       0x48 common/built-in.o
 .text.usb_detect_change
                0x0000000000000000       0x90 common/built-in.o
 .text.usb_submit_int_msg
                0x0000000000000000        0x4 common/built-in.o
 .text.usb_set_protocol
                0x0000000000000000       0x4c common/built-in.o
 .text.usb_set_idle
                0x0000000000000000       0x4c common/built-in.o
 .text.usb_get_report
                0x0000000000000000       0x5c common/built-in.o
 .text.usb_get_class_descriptor
                0x0000000000000000       0x5c common/built-in.o
 .text.usb_alloc_device
                0x0000000000000000        0x8 common/built-in.o
 .text.board_usb_init
                0x0000000000000000        0x8 common/built-in.o
 .text.board_usb_cleanup
                0x0000000000000000        0x8 common/built-in.o
 .text.usb_find_usb2_hub_address_port
                0x0000000000000000       0x68 common/built-in.o
 .text.usb_stor_reset
                0x0000000000000000        0xc common/built-in.o
 .text.iomux_printdevs
                0x0000000000000000       0x7c common/built-in.o
 .text.fgetc    0x0000000000000000       0x44 common/built-in.o
 .text.ftstc    0x0000000000000000       0x14 common/built-in.o
 .text.fputc    0x0000000000000000       0x14 common/built-in.o
 .text.fputs    0x0000000000000000       0x10 common/built-in.o
 .text.fprintf  0x0000000000000000       0x8c common/built-in.o
 .text.valloc   0x0000000000000000        0xc common/built-in.o
 .text.pvalloc  0x0000000000000000       0x10 common/built-in.o
 .text.cfree    0x0000000000000000        0x4 common/built-in.o
 .text.malloc_usable_size
                0x0000000000000000       0x44 common/built-in.o
 .text.mallopt  0x0000000000000000       0x5c common/built-in.o
 .text.memalign_simple
                0x0000000000000000       0x4c common/built-in.o
 .text.genimg_get_short_name
                0x0000000000000000       0x28 common/built-in.o
 .text.genimg_get_cat_name
                0x0000000000000000       0x78 common/built-in.o
 .text.genimg_get_cat_short_name
                0x0000000000000000       0x78 common/built-in.o
 .text.genimg_get_cat_count
                0x0000000000000000       0x1c common/built-in.o
 .text.genimg_get_cat_desc
                0x0000000000000000       0x1c common/built-in.o
 .text.genimg_get_type_short_name
                0x0000000000000000       0x10 common/built-in.o
 .text.genimg_get_comp_short_name
                0x0000000000000000       0x10 common/built-in.o
 .text.genimg_get_os_short_name
                0x0000000000000000       0x10 common/built-in.o
 .text.genimg_get_arch_short_name
                0x0000000000000000       0x10 common/built-in.o
 .text.genimg_get_kernel_addr
                0x0000000000000000       0x24 common/built-in.o
 .text.fit_get_subimage_count
                0x0000000000000000       0x68 common/built-in.o
 .text.fit_get_timestamp
                0x0000000000000000       0x5c common/built-in.o
 .text.fit_image_get_data_offset
                0x0000000000000000       0x48 common/built-in.o
 .text.fit_image_get_data_position
                0x0000000000000000       0x48 common/built-in.o
 .text.fit_image_get_data_size
                0x0000000000000000       0x48 common/built-in.o
 .text.fit_set_timestamp
                0x0000000000000000       0x44 common/built-in.o
 .text.fit_conf_find_compat
                0x0000000000000000      0x1a4 common/built-in.o
 .text.get_ram_size
                0x0000000000000000       0xf4 common/built-in.o
 .text.stdio_init
                0x0000000000000000       0x1c common/built-in.o
 .text.cli_simple_parse_line
                0x0000000000000000       0x9c common/built-in.o
 .text.cli_simple_process_macros
                0x0000000000000000      0x228 common/built-in.o
 .text.cli_simple_run_command
                0x0000000000000000      0x150 common/built-in.o
 .text.cli_simple_loop
                0x0000000000000000       0x90 common/built-in.o
 .text.cli_simple_run_command_list
                0x0000000000000000       0x74 common/built-in.o
 .text.run_command_repeatable
                0x0000000000000000       0x20 common/built-in.o
 .rodata.env_flags_parse_varaccess_from_binflags.str1.1
                0x0000000000000000       0x2c common/built-in.o
 .rodata.fdt_set_node_status
                0x0000000000000000        0x4 common/built-in.o
 .rodata.fdt_add_edid.str1.1
                0x0000000000000000       0x3b common/built-in.o
 .rodata.fdt_create_phandle.str1.1
                0x0000000000000000       0x1a common/built-in.o
 .rodata.fdt_fixup_display.str1.1
                0x0000000000000000       0x1c common/built-in.o
 .rodata.fdt_read_range.str1.1
                0x0000000000000000        0xf common/built-in.o
 .rodata.fdt_set_node_status.str1.1
                0x0000000000000000       0x3a common/built-in.o
 .rodata.fdt_set_phandle.str1.1
                0x0000000000000000       0x16 common/built-in.o
 .rodata.fdt_setup_simplefb_node.str1.1
                0x0000000000000000       0x2c common/built-in.o
 .rodata.fdt_verify_alias_address.str1.1
                0x0000000000000000       0xcd common/built-in.o
 .rodata.mdio_register_seq.str1.1
                0x0000000000000000        0x6 common/built-in.o
 .rodata.usb_find_usb2_hub_address_port.str1.1
                0x0000000000000000       0x36 common/built-in.o
 .rodata.iomux_printdevs.str1.1
                0x0000000000000000        0x6 common/built-in.o
 .rodata.mallopt
                0x0000000000000000        0x4 common/built-in.o
 .rodata.genimg_get_short_name.str1.1
                0x0000000000000000        0x8 common/built-in.o
 .rodata.table_info
                0x0000000000000000       0x60 common/built-in.o
 .rodata.unknown_str.6566
                0x0000000000000000        0x9 common/built-in.o
 .rodata.fit_get_timestamp.str1.1
                0x0000000000000000        0xa common/built-in.o
 .rodata.fit_image_get_data_offset.str1.1
                0x0000000000000000        0xc common/built-in.o
 .rodata.fit_image_get_data_position.str1.1
                0x0000000000000000        0xe common/built-in.o
 .rodata.fit_image_get_data_size.str1.1
                0x0000000000000000        0xa common/built-in.o
 .rodata.cli_simple_loop.str1.1
                0x0000000000000000       0x17 common/built-in.o
 .rodata.cli_simple_parse_line.str1.1
                0x0000000000000000       0x1f common/built-in.o
 .rodata.cli_simple_run_command.str1.1
                0x0000000000000000       0x16 common/built-in.o
 .data          0x0000000000000000        0x0 common/built-in.o
 .data.hash_algo
                0x0000000000000000       0xa8 common/built-in.o
 .bss           0x0000000000000000        0x0 common/built-in.o
 .bss.env_ptr   0x0000000000000000        0x8 common/built-in.o
 .bss.msg.6567  0x0000000000000000       0x1e common/built-in.o
 .bss.save_addr
                0x0000000000000000        0x8 common/built-in.o
 .bss.save_size
                0x0000000000000000        0x8 common/built-in.o
 .bss.lastcommand.5801
                0x0000000000000000      0x801 common/built-in.o
 .text          0x0000000000000000        0x0 disk/built-in.o
 .text.blk_get_dev
                0x0000000000000000       0x3c disk/built-in.o
 .text.part_get_info_by_name
                0x0000000000000000       0xc0 disk/built-in.o
 .text.is_valid_dos_buf
                0x0000000000000000       0x1c disk/built-in.o
 .text.write_mbr_partition
                0x0000000000000000       0x84 disk/built-in.o
 .rodata.__func__.5756
                0x0000000000000000       0x14 disk/built-in.o
 .rodata.write_mbr_partition.str1.1
                0x0000000000000000       0x2d disk/built-in.o
 .data          0x0000000000000000        0x0 disk/built-in.o
 .bss           0x0000000000000000        0x0 disk/built-in.o
 .text          0x0000000000000000        0x0 drivers/built-in.o
 .text._device_find_global_by_of_offset
                0x0000000000000000       0x68 drivers/built-in.o
 .text.dev_get_parent_priv
                0x0000000000000000       0x34 drivers/built-in.o
 .text.device_get_child
                0x0000000000000000       0x5c drivers/built-in.o
 .text.device_find_child_by_seq
                0x0000000000000000       0x58 drivers/built-in.o
 .text.device_get_child_by_seq
                0x0000000000000000       0x60 drivers/built-in.o
 .text.device_find_child_by_of_offset
                0x0000000000000000       0x44 drivers/built-in.o
 .text.device_get_child_by_of_offset
                0x0000000000000000       0x40 drivers/built-in.o
 .text.device_get_global_by_of_offset
                0x0000000000000000       0x48 drivers/built-in.o
 .text.device_get_uclass_id
                0x0000000000000000       0x10 drivers/built-in.o
 .text.dev_get_addr_size_index
                0x0000000000000000       0x48 drivers/built-in.o
 .text.dev_get_addr_name
                0x0000000000000000       0x50 drivers/built-in.o
 .text.dev_get_addr_ptr
                0x0000000000000000        0x8 drivers/built-in.o
 .text.dev_map_physmem
                0x0000000000000000       0x20 drivers/built-in.o
 .text.device_has_children
                0x0000000000000000       0x14 drivers/built-in.o
 .text.device_has_active_children
                0x0000000000000000       0x3c drivers/built-in.o
 .text.device_is_last_sibling
                0x0000000000000000       0x24 drivers/built-in.o
 .text.device_set_name_alloced
                0x0000000000000000       0x10 drivers/built-in.o
 .text.device_set_name
                0x0000000000000000       0x44 drivers/built-in.o
 .text.of_device_is_compatible
                0x0000000000000000       0x2c drivers/built-in.o
 .text.of_machine_is_compatible
                0x0000000000000000       0x2c drivers/built-in.o
 .text.dm_fixup_for_gd_move
                0x0000000000000000       0x18 drivers/built-in.o
 .text.dm_set_translation_offset
                0x0000000000000000       0x28 drivers/built-in.o
 .text.dm_uninit
                0x0000000000000000       0x24 drivers/built-in.o
 .text.uclass_destroy
                0x0000000000000000       0x94 drivers/built-in.o
 .text.uclass_get_name
                0x0000000000000000       0x30 drivers/built-in.o
 .text.uclass_get_device_by_driver
                0x0000000000000000       0x7c drivers/built-in.o
 .text.uclass_first_device_err
                0x0000000000000000       0x34 drivers/built-in.o
 .text.dm_dbg   0x0000000000000000       0x54 drivers/built-in.o
 .text.list_count_items
                0x0000000000000000       0x28 drivers/built-in.o
 .text.devres_get
                0x0000000000000000       0x5c drivers/built-in.o
 .text.devres_release
                0x0000000000000000       0x54 drivers/built-in.o
 .text.simple_bus_translate
                0x0000000000000000       0x50 drivers/built-in.o
 .text.pinctrl_decode_pin_config
                0x0000000000000000       0x58 drivers/built-in.o
 .text.pinctrl_request
                0x0000000000000000       0x1c drivers/built-in.o
 .text.pinctrl_request_noflags
                0x0000000000000000        0x8 drivers/built-in.o
 .text.pinctrl_get_periph_id
                0x0000000000000000       0x1c drivers/built-in.o
 .text.pinctrl_get_gpio_mux
                0x0000000000000000       0x1c drivers/built-in.o
 .text.pinctrl_generic_set_state_subnode
                0x0000000000000000      0x2a8 drivers/built-in.o
 .text.pinctrl_generic_set_state
                0x0000000000000000       0x6c drivers/built-in.o
 .text.blk_list_part
                0x0000000000000000       0x9c drivers/built-in.o
 .text.blk_print_part_devnum
                0x0000000000000000       0x60 drivers/built-in.o
 .text.blk_list_devices
                0x0000000000000000       0x84 drivers/built-in.o
 .text.blk_print_device_num
                0x0000000000000000       0x6c drivers/built-in.o
 .text.blk_show_device
                0x0000000000000000       0x90 drivers/built-in.o
 .text.blk_read_devnum
                0x0000000000000000       0x94 drivers/built-in.o
 .text.blk_write_devnum
                0x0000000000000000       0x70 drivers/built-in.o
 .text.fuse_bank_physical
                0x0000000000000000        0x4 drivers/built-in.o
 .text.fuse_word_physical
                0x0000000000000000        0x8 drivers/built-in.o
 .text.board_video_skip
                0x0000000000000000        0x8 drivers/built-in.o
 .text.video_position_cursor
                0x0000000000000000       0x50 drivers/built-in.o
 .text.video_get_pixel_width
                0x0000000000000000       0x10 drivers/built-in.o
 .text.video_get_pixel_height
                0x0000000000000000       0x10 drivers/built-in.o
 .text.video_get_screen_rows
                0x0000000000000000       0x20 drivers/built-in.o
 .text.video_get_screen_columns
                0x0000000000000000       0x14 drivers/built-in.o
 .text.cdn_api_loadfirmware
                0x0000000000000000       0xd8 drivers/built-in.o
 .text.cdn_api_general_test_echo
                0x0000000000000000       0xe8 drivers/built-in.o
 .text.cdn_api_general_test_echo_blocking
                0x0000000000000000       0x38 drivers/built-in.o
 .text.cdn_api_general_getcurversion
                0x0000000000000000       0x8c drivers/built-in.o
 .text.cdn_api_get_event
                0x0000000000000000       0xac drivers/built-in.o
 .text.cdn_api_get_debug_reg_val
                0x0000000000000000       0x78 drivers/built-in.o
 .text.cdn_api_checkalive_blocking
                0x0000000000000000       0x20 drivers/built-in.o
 .text.cdn_api_maincontrol
                0x0000000000000000       0xd4 drivers/built-in.o
 .text.cdn_api_maincontrol_blocking
                0x0000000000000000       0x38 drivers/built-in.o
 .text.cdn_api_apbconf
                0x0000000000000000      0x16c drivers/built-in.o
 .text.cdn_api_apbconf_blocking
                0x0000000000000000       0x90 drivers/built-in.o
 .text.cdn_api_setclock
                0x0000000000000000        0xc drivers/built-in.o
 .text.cdn_api_general_write_field
                0x0000000000000000       0xd8 drivers/built-in.o
 .text.cdn_api_general_write_field_blocking
                0x0000000000000000       0x50 drivers/built-in.o
 .text.cdn_api_general_phy_test_access
                0x0000000000000000       0xd0 drivers/built-in.o
 .text.cdn_api_general_phy_test_access_blocking
                0x0000000000000000       0x30 drivers/built-in.o
 .text.cdn_sleep
                0x0000000000000000       0x34 drivers/built-in.o
 .text.cdn_usleep
                0x0000000000000000        0x8 drivers/built-in.o
 .text.cdn_api_infoframesetnoactiveidle
                0x0000000000000000        0x8 drivers/built-in.o
 .text.cdn_api_infoframeremove
                0x0000000000000000       0x44 drivers/built-in.o
 .text.internal_mkmsg
                0x0000000000000000       0x50 drivers/built-in.o
 .text.print_fw_ver
                0x0000000000000000       0x30 drivers/built-in.o
 .text.internal_get_msg_len
                0x0000000000000000       0x18 drivers/built-in.o
 .text.edid_parse
                0x0000000000000000      0x880 drivers/built-in.o
 .text.CDN_API_HDMITX_DDC_READ
                0x0000000000000000       0xfc drivers/built-in.o
 .text.CDN_API_HDMITX_DDC_READ_blocking
                0x0000000000000000       0x38 drivers/built-in.o
 .text.CDN_API_HDMITX_DDC_UPDATE_READ
                0x0000000000000000       0xc0 drivers/built-in.o
 .text.CDN_API_HDMITX_DDC_UPDATE_READ_blocking
                0x0000000000000000       0x30 drivers/built-in.o
 .text.CDN_API_HDMITX_READ_EDID
                0x0000000000000000       0xf4 drivers/built-in.o
 .text.CDN_API_HDMITX_READ_EDID_blocking
                0x0000000000000000       0x48 drivers/built-in.o
 .text.CDN_API_HDMITX_ForceColorDepth_blocking
                0x0000000000000000       0x14 drivers/built-in.o
 .text.CDN_API_HDMITX_ReadEvents
                0x0000000000000000       0xcc drivers/built-in.o
 .text.CDN_API_HDMITX_ReadEvents_blocking
                0x0000000000000000       0x30 drivers/built-in.o
 .text.CDN_API_HDMITX_GetHpdStatus
                0x0000000000000000       0xcc drivers/built-in.o
 .text.CDN_API_HDMITX_GetHpdStatus_blocking
                0x0000000000000000       0x30 drivers/built-in.o
 .text.reset_cpu
                0x0000000000000000       0x30 drivers/built-in.o
 .text._input_send_keycodes
                0x0000000000000000      0x3fc drivers/built-in.o
 .text.input_tstc
                0x0000000000000000       0x48 drivers/built-in.o
 .text.input_getc
                0x0000000000000000       0x5c drivers/built-in.o
 .text.input_send_keycodes
                0x0000000000000000        0x8 drivers/built-in.o
 .text.input_add_keycode
                0x0000000000000000       0x7c drivers/built-in.o
 .text.input_add_table
                0x0000000000000000       0x38 drivers/built-in.o
 .text.input_set_delays
                0x0000000000000000        0x8 drivers/built-in.o
 .text.input_allow_repeats
                0x0000000000000000        0x8 drivers/built-in.o
 .text.input_leds_changed
                0x0000000000000000       0x18 drivers/built-in.o
 .text.input_add_tables
                0x0000000000000000       0x70 drivers/built-in.o
 .text.input_init
                0x0000000000000000       0x34 drivers/built-in.o
 .text.input_stdio_register
                0x0000000000000000       0x58 drivers/built-in.o
 .text.create_keymap
                0x0000000000000000       0xa0 drivers/built-in.o
 .text.key_matrix_decode
                0x0000000000000000       0xe0 drivers/built-in.o
 .text.key_matrix_decode_fdt
                0x0000000000000000       0xc0 drivers/built-in.o
 .text.key_matrix_init
                0x0000000000000000       0x50 drivers/built-in.o
 .rodata.__func__.7198
                0x0000000000000000       0x14 drivers/built-in.o
 .rodata.dev_get_addr_name.str1.1
                0x0000000000000000        0xa drivers/built-in.o
 .rodata.pinctrl_decode_pin_config.str1.1
                0x0000000000000000       0x1c drivers/built-in.o
 .rodata.pinctrl_generic_set_state_subnode.str1.1
                0x0000000000000000       0x15 drivers/built-in.o
 .rodata.blk_list_devices.str1.1
                0x0000000000000000        0xc drivers/built-in.o
 .rodata.blk_print_device_num.str1.1
                0x0000000000000000       0x10 drivers/built-in.o
 .rodata.blk_show_device.str1.1
                0x0000000000000000       0x1d drivers/built-in.o
 .rodata.cdn_api_get_debug_reg_val.str1.1
                0x0000000000000000       0x37 drivers/built-in.o
 .rodata.cdn_api_get_event.str1.1
                0x0000000000000000       0x3b drivers/built-in.o
 .rodata.print_fw_ver.str1.1
                0x0000000000000000       0x27 drivers/built-in.o
 .rodata.edid_parse
                0x0000000000000000        0x5 drivers/built-in.o
 .rodata.input_stdio_register.str1.1
                0x0000000000000000        0x6 drivers/built-in.o
 .rodata.kbd_plain_xlate
                0x0000000000000000       0x64 drivers/built-in.o
 .rodata.kbd_plain_xlate_german
                0x0000000000000000       0x84 drivers/built-in.o
 .rodata.kbd_to_ansi364
                0x0000000000000000       0x40 drivers/built-in.o
 .rodata.key_matrix_decode_fdt.str1.1
                0x0000000000000000       0x1d drivers/built-in.o
 .data          0x0000000000000000        0x0 drivers/built-in.o
 .data.g_encoding
                0x0000000000000000        0x8 drivers/built-in.o
 .data.kbd_ctrl_xlate
                0x0000000000000000       0x64 drivers/built-in.o
 .data.kbd_entry
                0x0000000000000000       0xe0 drivers/built-in.o
 .data.kbd_right_alt_xlate_german
                0x0000000000000000       0x58 drivers/built-in.o
 .data.kbd_shift_xlate
                0x0000000000000000       0x64 drivers/built-in.o
 .data.kbd_shift_xlate_german
                0x0000000000000000       0x84 drivers/built-in.o
 .bss           0x0000000000000000        0x0 drivers/built-in.o
 .text          0x0000000000000000        0x0 drivers/gpio/built-in.o
 .text.gpio_requestf
                0x0000000000000000       0x78 drivers/gpio/built-in.o
 .text.dm_gpio_get_open_drain
                0x0000000000000000       0x5c drivers/gpio/built-in.o
 .text.dm_gpio_set_open_drain
                0x0000000000000000       0x68 drivers/gpio/built-in.o
 .text.dm_gpio_set_dir
                0x0000000000000000        0x8 drivers/gpio/built-in.o
 .text.gpio_set_value
                0x0000000000000000       0x34 drivers/gpio/built-in.o
 .text.gpio_claim_vector
                0x0000000000000000       0xac drivers/gpio/built-in.o
 .text.gpio_get_values_as_int
                0x0000000000000000       0x68 drivers/gpio/built-in.o
 .text.dm_gpio_get_values_as_int
                0x0000000000000000       0x74 drivers/gpio/built-in.o
 .text.gpio_get_list_count
                0x0000000000000000       0x28 drivers/gpio/built-in.o
 .text.dm_gpio_free
                0x0000000000000000       0x10 drivers/gpio/built-in.o
 .text.gpio_free_list
                0x0000000000000000       0x5c drivers/gpio/built-in.o
 .text.gpio_free_list_nodev
                0x0000000000000000       0x10 drivers/gpio/built-in.o
 .text.gpio_request_list_by_name_nodev
                0x0000000000000000       0xb0 drivers/gpio/built-in.o
 .text.gpio_request_list_by_name
                0x0000000000000000       0x20 drivers/gpio/built-in.o
 .text.gpio_get_number
                0x0000000000000000       0x24 drivers/gpio/built-in.o
 .rodata.dm_gpio_get_open_drain.str1.1
                0x0000000000000000        0xf drivers/gpio/built-in.o
 .rodata.dm_gpio_set_open_drain.str1.1
                0x0000000000000000        0xf drivers/gpio/built-in.o
 .data          0x0000000000000000        0x0 drivers/gpio/built-in.o
 .bss           0x0000000000000000        0x0 drivers/gpio/built-in.o
 .text          0x0000000000000000        0x0 drivers/i2c/built-in.o
 .text.i2c_dump_msgs
                0x0000000000000000       0xac drivers/i2c/built-in.o
 .text.dm_i2c_xfer
                0x0000000000000000       0x4c drivers/i2c/built-in.o
 .text.dm_i2c_reg_read
                0x0000000000000000       0x24 drivers/i2c/built-in.o
 .text.dm_i2c_reg_write
                0x0000000000000000       0x24 drivers/i2c/built-in.o
 .text.i2c_get_chip_for_busnum
                0x0000000000000000       0x54 drivers/i2c/built-in.o
 .rodata.i2c_dump_msgs.str1.1
                0x0000000000000000       0x1b drivers/i2c/built-in.o
 .data          0x0000000000000000        0x0 drivers/i2c/built-in.o
 .bss           0x0000000000000000        0x0 drivers/i2c/built-in.o
 .text          0x0000000000000000        0x0 drivers/mmc/built-in.o
 .text.mmc_get_mmc_dev
                0x0000000000000000       0x28 drivers/mmc/built-in.o
 .text.mmc_destroy
                0x0000000000000000        0x4 drivers/mmc/built-in.o
 .text.fsl_esdhc_initialize
                0x0000000000000000       0x84 drivers/mmc/built-in.o
 .text.fsl_esdhc_mmc_init
                0x0000000000000000       0x3c drivers/mmc/built-in.o
 .text.esdhc_status_fixup
                0x0000000000000000       0x30 drivers/mmc/built-in.o
 .text.fdt_fixup_esdhc
                0x0000000000000000       0x54 drivers/mmc/built-in.o
 .text.mmc_dump_capabilities
                0x0000000000000000       0xbc drivers/mmc/built-in.o
 .text.cpu_mmc_init
                0x0000000000000000        0x8 drivers/mmc/built-in.o
 .text.board_mmc_init
                0x0000000000000000        0x8 drivers/mmc/built-in.o
 .text.mmc_set_preinit
                0x0000000000000000        0x8 drivers/mmc/built-in.o
 .rodata.esdhc_status_fixup.str1.1
                0x0000000000000000        0xc drivers/mmc/built-in.o
 .rodata.mmc_dump_capabilities.str1.1
                0x0000000000000000       0x2f drivers/mmc/built-in.o
 .data          0x0000000000000000        0x0 drivers/mmc/built-in.o
 .bss           0x0000000000000000        0x0 drivers/mmc/built-in.o
 .text          0x0000000000000000        0x0 drivers/mtd/built-in.o
 .text.idr_remove
                0x0000000000000000       0x14 drivers/mtd/built-in.o
 .text.idr_find
                0x0000000000000000       0x20 drivers/mtd/built-in.o
 .text.idr_get_next
                0x0000000000000000       0x3c drivers/mtd/built-in.o
 .text.idr_alloc
                0x0000000000000000       0x44 drivers/mtd/built-in.o
 .text.__mtd_next_device
                0x0000000000000000       0x24 drivers/mtd/built-in.o
 .text.del_mtd_device
                0x0000000000000000       0x8c drivers/mtd/built-in.o
 .text.__get_mtd_device
                0x0000000000000000       0x40 drivers/mtd/built-in.o
 .text.get_mtd_device
                0x0000000000000000       0xa0 drivers/mtd/built-in.o
 .text.get_mtd_device_nm
                0x0000000000000000       0x64 drivers/mtd/built-in.o
 .text.__put_mtd_device
                0x0000000000000000       0x5c drivers/mtd/built-in.o
 .text.put_mtd_device
                0x0000000000000000        0x4 drivers/mtd/built-in.o
 .text.mtd_erase
                0x0000000000000000       0x84 drivers/mtd/built-in.o
 .text.mtd_get_unmapped_area
                0x0000000000000000       0x34 drivers/mtd/built-in.o
 .text.mtd_read
                0x0000000000000000       0x7c drivers/mtd/built-in.o
 .text.mtd_write
                0x0000000000000000       0x50 drivers/mtd/built-in.o
 .text.mtd_panic_write
                0x0000000000000000       0x58 drivers/mtd/built-in.o
 .text.mtd_read_oob
                0x0000000000000000       0x5c drivers/mtd/built-in.o
 .text.mtd_get_fact_prot_info
                0x0000000000000000       0x20 drivers/mtd/built-in.o
 .text.mtd_read_fact_prot_reg
                0x0000000000000000       0x24 drivers/mtd/built-in.o
 .text.mtd_get_user_prot_info
                0x0000000000000000       0x20 drivers/mtd/built-in.o
 .text.mtd_read_user_prot_reg
                0x0000000000000000       0x24 drivers/mtd/built-in.o
 .text.mtd_write_user_prot_reg
                0x0000000000000000       0x58 drivers/mtd/built-in.o
 .text.mtd_lock_user_prot_reg
                0x0000000000000000       0x20 drivers/mtd/built-in.o
 .text.mtd_lock
                0x0000000000000000       0x44 drivers/mtd/built-in.o
 .text.mtd_unlock
                0x0000000000000000       0x44 drivers/mtd/built-in.o
 .text.add_mtd_device
                0x0000000000000000      0x210 drivers/mtd/built-in.o
 .text.mtd_is_locked
                0x0000000000000000       0x44 drivers/mtd/built-in.o
 .text.mtd_block_isreserved
                0x0000000000000000       0x2c drivers/mtd/built-in.o
 .text.mtd_block_isbad
                0x0000000000000000       0x2c drivers/mtd/built-in.o
 .text.mtd_block_markbad
                0x0000000000000000       0x3c drivers/mtd/built-in.o
 .rodata.__put_mtd_device.str1.1
                0x0000000000000000       0x2c drivers/mtd/built-in.o
 .rodata.add_mtd_device.str1.1
                0x0000000000000000       0x28 drivers/mtd/built-in.o
 .rodata.del_mtd_device.str1.1
                0x0000000000000000       0x30 drivers/mtd/built-in.o
 .data          0x0000000000000000        0x0 drivers/mtd/built-in.o
 .bss           0x0000000000000000        0x0 drivers/mtd/built-in.o
 .bss.mtd_idr   0x0000000000000000      0x400 drivers/mtd/built-in.o
 .bss.mtd_table
                0x0000000000000000      0x100 drivers/mtd/built-in.o
 .text          0x0000000000000000        0x0 drivers/mtd/spi/built-in.o
 .text.spi_flash_decode_fdt
                0x0000000000000000        0x8 drivers/mtd/spi/built-in.o
 .data          0x0000000000000000        0x0 drivers/mtd/spi/built-in.o
 .bss           0x0000000000000000        0x0 drivers/mtd/spi/built-in.o
 .text          0x0000000000000000        0x0 drivers/net/built-in.o
 .data          0x0000000000000000        0x0 drivers/net/built-in.o
 .bss           0x0000000000000000        0x0 drivers/net/built-in.o
 .text          0x0000000000000000        0x0 drivers/net/phy/built-in.o
 .text.phy_set_supported
                0x0000000000000000       0x5c drivers/net/phy/built-in.o
 .text.miiphy_reset
                0x0000000000000000       0x30 drivers/net/phy/built-in.o
 .text.phy_connect
                0x0000000000000000       0x68 drivers/net/phy/built-in.o
 .text.board_phy_config
                0x0000000000000000       0x18 drivers/net/phy/built-in.o
 .text.phy_shutdown
                0x0000000000000000       0x2c drivers/net/phy/built-in.o
 .rodata.phy_connect.str1.1
                0x0000000000000000       0x23 drivers/net/phy/built-in.o
 .data          0x0000000000000000        0x0 drivers/net/phy/built-in.o
 .bss           0x0000000000000000        0x0 drivers/net/phy/built-in.o
 .text          0x0000000000000000        0x0 drivers/power/pmic/built-in.o
 .data          0x0000000000000000        0x0 drivers/power/pmic/built-in.o
 .bss           0x0000000000000000        0x0 drivers/power/pmic/built-in.o
 .text          0x0000000000000000        0x0 drivers/power/regulator/built-in.o
 .text.regulator_show
                0x0000000000000000       0x9c drivers/power/regulator/built-in.o
 .text.regulator_get_by_devname
                0x0000000000000000       0x10 drivers/power/regulator/built-in.o
 .text.regulator_autoset
                0x0000000000000000       0x80 drivers/power/regulator/built-in.o
 .text.regulator_autoset_by_name
                0x0000000000000000       0x3c drivers/power/regulator/built-in.o
 .text.regulator_list_autoset
                0x0000000000000000       0x98 drivers/power/regulator/built-in.o
 .text.regulators_enable_boot_on
                0x0000000000000000       0x8c drivers/power/regulator/built-in.o
 .rodata.regulator_show.str1.1
                0x0000000000000000       0x36 drivers/power/regulator/built-in.o
 .data          0x0000000000000000        0x0 drivers/power/regulator/built-in.o
 .bss           0x0000000000000000        0x0 drivers/power/regulator/built-in.o
 .text          0x0000000000000000        0x0 drivers/serial/built-in.o
 .text.serial_reinit_all
                0x0000000000000000       0x34 drivers/serial/built-in.o
 .data          0x0000000000000000        0x0 drivers/serial/built-in.o
 .bss           0x0000000000000000        0x0 drivers/serial/built-in.o
 .text          0x0000000000000000        0x0 drivers/spi/built-in.o
 .text.spi_set_wordlen
                0x0000000000000000       0x38 drivers/spi/built-in.o
 .text.spi_init
                0x0000000000000000        0x4 drivers/spi/built-in.o
 .rodata.spi_set_wordlen.str1.1
                0x0000000000000000       0x19 drivers/spi/built-in.o
 .data          0x0000000000000000        0x0 drivers/spi/built-in.o
 .bss           0x0000000000000000        0x0 drivers/spi/built-in.o
 .text          0x0000000000000000        0x0 drivers/usb/dwc3/built-in.o
 .text.dwc3_gadget_get_link_state
                0x0000000000000000       0x14 drivers/usb/dwc3/built-in.o
 .data          0x0000000000000000        0x0 drivers/usb/dwc3/built-in.o
 .bss           0x0000000000000000        0x0 drivers/usb/dwc3/built-in.o
 .text          0x0000000000000000        0x0 drivers/usb/gadget/built-in.o
 .text.usb_gadget_config_buf
                0x0000000000000000       0xa4 drivers/usb/gadget/built-in.o
 .text.usb_function_deactivate
                0x0000000000000000       0x60 drivers/usb/gadget/built-in.o
 .text.usb_function_activate
                0x0000000000000000       0x4c drivers/usb/gadget/built-in.o
 .text.usb_string_ids_tab
                0x0000000000000000       0x38 drivers/usb/gadget/built-in.o
 .text.usb_string_ids_n
                0x0000000000000000       0x2c drivers/usb/gadget/built-in.o
 .text.g_dnl_set_serialnumber
                0x0000000000000000       0x40 drivers/usb/gadget/built-in.o
 .text.board_usb_init
                0x0000000000000000        0x8 drivers/usb/gadget/built-in.o
 .text.board_usb_cleanup
                0x0000000000000000        0x8 drivers/usb/gadget/built-in.o
 .text.g_dnl_detach
                0x0000000000000000        0xc drivers/usb/gadget/built-in.o
 .text.g_dnl_trigger_detach
                0x0000000000000000       0x10 drivers/usb/gadget/built-in.o
 .text.g_dnl_clear_detach
                0x0000000000000000        0xc drivers/usb/gadget/built-in.o
 .text.set_bit  0x0000000000000000       0x20 drivers/usb/gadget/built-in.o
 .text.clear_bit
                0x0000000000000000       0x20 drivers/usb/gadget/built-in.o
 .data          0x0000000000000000        0x0 drivers/usb/gadget/built-in.o
 .bss           0x0000000000000000        0x0 drivers/usb/gadget/built-in.o
 .bss.g_dnl_detach_request
                0x0000000000000000        0x1 drivers/usb/gadget/built-in.o
 .text          0x0000000000000000        0x0 drivers/usb/gadget/udc/built-in.o
 .data          0x0000000000000000        0x0 drivers/usb/gadget/udc/built-in.o
 .bss           0x0000000000000000        0x0 drivers/usb/gadget/udc/built-in.o
 .text          0x0000000000000000        0x0 drivers/usb/host/built-in.o
 .data          0x0000000000000000        0x0 drivers/usb/host/built-in.o
 .bss           0x0000000000000000        0x0 drivers/usb/host/built-in.o
 .text          0x0000000000000000        0x0 fs/built-in.o
 .text.fs_uuid  0x0000000000000000       0x28 fs/built-in.o
 .text.do_fs_uuid
                0x0000000000000000       0xa0 fs/built-in.o
 .text.do_fs_type
                0x0000000000000000       0x8c fs/built-in.o
 .text.print_revoke_blks
                0x0000000000000000       0x70 fs/built-in.o
 .text.fat_register_device
                0x0000000000000000       0x7c fs/built-in.o
 .text.file_fat_read
                0x0000000000000000       0x2c fs/built-in.o
 .text.file_getfsname
                0x0000000000000000       0x18 fs/built-in.o
 .text.file_cd  0x0000000000000000      0x1f0 fs/built-in.o
 .text.file_detectfs
                0x0000000000000000       0x48 fs/built-in.o
 .text.file_ls  0x0000000000000000       0x9c fs/built-in.o
 .text.file_read
                0x0000000000000000       0xb4 fs/built-in.o
 .rodata.do_fs_uuid.str1.1
                0x0000000000000000        0x4 fs/built-in.o
 .rodata.print_revoke_blks.str1.1
                0x0000000000000000       0x25 fs/built-in.o
 .rodata.fat_register_device.str1.1
                0x0000000000000000       0x2b fs/built-in.o
 .rodata.file_detectfs.str1.1
                0x0000000000000000        0x2 fs/built-in.o
 .rodata.file_ls.str1.1
                0x0000000000000000       0x2e fs/built-in.o
 .rodata.file_read.str1.1
                0x0000000000000000       0x27 fs/built-in.o
 .rodata.filesystems
                0x0000000000000000       0x28 fs/built-in.o
 .data          0x0000000000000000        0x0 fs/built-in.o
 .data.current_filesystem
                0x0000000000000000        0x4 fs/built-in.o
 .data.file_cwd
                0x0000000000000000      0x200 fs/built-in.o
 .bss           0x0000000000000000        0x0 fs/built-in.o
 .bss.ext4fs_symlinknest
                0x0000000000000000        0x4 fs/built-in.o
 .text          0x0000000000000000        0x0 lib/built-in.o
 .text.invalidate_icache_all
                0x0000000000000000        0x4 lib/built-in.o
 .text.efi_add_runtime_mmio
                0x0000000000000000       0x68 lib/built-in.o
 .text.inflateInit_
                0x0000000000000000       0x10 lib/built-in.o
 .text.fdt_get_max_phandle
                0x0000000000000000       0x80 lib/built-in.o
 .text.fdt_get_alias
                0x0000000000000000       0x34 lib/built-in.o
 .text.fdt_get_path
                0x0000000000000000      0x16c lib/built-in.o
 .text.fdt_node_offset_by_prop_value
                0x0000000000000000       0xb4 lib/built-in.o
 .text.fdt_stringlist_contains
                0x0000000000000000       0x98 lib/built-in.o
 .text.fdt_stringlist_count
                0x0000000000000000       0x7c lib/built-in.o
 .text.fdt_node_check_compatible
                0x0000000000000000       0x4c lib/built-in.o
 .text.fdt_node_offset_by_compatible
                0x0000000000000000       0x84 lib/built-in.o
 .text.fdt_set_name
                0x0000000000000000       0xac lib/built-in.o
 .text.fdt_appendprop
                0x0000000000000000       0xec lib/built-in.o
 .text.fdt_pack
                0x0000000000000000       0x6c lib/built-in.o
 .text.fdt_remove_unused_strings
                0x0000000000000000       0xcc lib/built-in.o
 .text._fdt_sw_check_header
                0x0000000000000000       0x1c lib/built-in.o
 .text._fdt_grab_space
                0x0000000000000000       0x58 lib/built-in.o
 .text.fdt_create
                0x0000000000000000       0x70 lib/built-in.o
 .text.fdt_resize
                0x0000000000000000       0xe0 lib/built-in.o
 .text.fdt_add_reservemap_entry
                0x0000000000000000       0x74 lib/built-in.o
 .text.fdt_finish_reservemap
                0x0000000000000000        0xc lib/built-in.o
 .text.fdt_begin_node
                0x0000000000000000       0x84 lib/built-in.o
 .text.fdt_end_node
                0x0000000000000000       0x44 lib/built-in.o
 .text.fdt_property_placeholder
                0x0000000000000000      0x124 lib/built-in.o
 .text.fdt_property
                0x0000000000000000       0x50 lib/built-in.o
 .text.fdt_finish
                0x0000000000000000      0x10c lib/built-in.o
 .text.fdt_setprop_inplace_namelen_partial
                0x0000000000000000       0x6c lib/built-in.o
 .text.fdt_setprop_inplace
                0x0000000000000000       0x8c lib/built-in.o
 .text.fdt_nop_property
                0x0000000000000000       0x48 lib/built-in.o
 .text.fdt_nop_node
                0x0000000000000000       0x68 lib/built-in.o
 .text.fdt_find_regions
                0x0000000000000000      0x344 lib/built-in.o
 .text.fdt_create_empty_tree
                0x0000000000000000       0x78 lib/built-in.o
 .text.fdt_add_region
                0x0000000000000000       0x78 lib/built-in.o
 .text.fdt_add_alias_regions
                0x0000000000000000      0x1a4 lib/built-in.o
 .text.fdt_next_region
                0x0000000000000000      0x4d8 lib/built-in.o
 .text.fdt_first_region
                0x0000000000000000       0x30 lib/built-in.o
 .text.crc7     0x0000000000000000       0x30 lib/built-in.o
 .text.crc8     0x0000000000000000       0x48 lib/built-in.o
 .text.lmb_dump_all
                0x0000000000000000        0x4 lib/built-in.o
 .text.lmb_is_reserved
                0x0000000000000000       0x4c lib/built-in.o
 .text.arch_lmb_reserve
                0x0000000000000000        0x4 lib/built-in.o
 .text.ldiv     0x0000000000000000       0x2c lib/built-in.o
 .text.byteReverse
                0x0000000000000000        0x4 lib/built-in.o
 .text.md5      0x0000000000000000       0x64 lib/built-in.o
 .text.rc4_encode
                0x0000000000000000       0xdc lib/built-in.o
 .text.sha1_csum
                0x0000000000000000       0x48 lib/built-in.o
 .text.sha1_hmac
                0x0000000000000000      0x14c lib/built-in.o
 .text.sha1_self_test
                0x0000000000000000        0x8 lib/built-in.o
 .text.fdtdec_get_compatible
                0x0000000000000000       0x10 lib/built-in.o
 .text.fdtdec_get_uint64
                0x0000000000000000       0x40 lib/built-in.o
 .text.fdtdec_lookup
                0x0000000000000000       0x68 lib/built-in.o
 .text.fdtdec_next_compatible
                0x0000000000000000       0x10 lib/built-in.o
 .text.fdtdec_next_compatible_subnode
                0x0000000000000000       0x78 lib/built-in.o
 .text.fdtdec_next_alias
                0x0000000000000000       0xac lib/built-in.o
 .text.fdtdec_add_aliases_for_id
                0x0000000000000000      0x244 lib/built-in.o
 .text.fdtdec_find_aliases_for_id
                0x0000000000000000       0x60 lib/built-in.o
 .text.fdtdec_get_chosen_prop
                0x0000000000000000       0x44 lib/built-in.o
 .text.fdtdec_get_chosen_node
                0x0000000000000000       0x3c lib/built-in.o
 .text.fdtdec_check_fdt
                0x0000000000000000       0x18 lib/built-in.o
 .text.fdtdec_lookup_phandle
                0x0000000000000000       0x44 lib/built-in.o
 .text.decode_timing_property
                0x0000000000000000       0x8c lib/built-in.o
 .text.fdtdec_locate_array
                0x0000000000000000       0x28 lib/built-in.o
 .text.fdtdec_get_child_count
                0x0000000000000000       0x40 lib/built-in.o
 .text.fdtdec_get_byte_array
                0x0000000000000000       0x48 lib/built-in.o
 .text.fdtdec_locate_byte_array
                0x0000000000000000       0x24 lib/built-in.o
 .text.fdtdec_get_config_bool
                0x0000000000000000       0x54 lib/built-in.o
 .text.fdtdec_decode_region
                0x0000000000000000       0x5c lib/built-in.o
 .text.fdtdec_read_fmap_entry
                0x0000000000000000       0xdc lib/built-in.o
 .text.fdtdec_get_addr_size_auto_parent
                0x0000000000000000       0xa8 lib/built-in.o
 .text.fdtdec_get_addr_size_auto_noparent
                0x0000000000000000       0x7c lib/built-in.o
 .text.fdt_get_resource
                0x0000000000000000      0x114 lib/built-in.o
 .text.fdt_get_named_resource
                0x0000000000000000       0x64 lib/built-in.o
 .text.fdtdec_decode_memory_region
                0x0000000000000000      0x130 lib/built-in.o
 .text.fdtdec_decode_display_timing
                0x0000000000000000      0x304 lib/built-in.o
 .text.fdtdec_setup_memory_size
                0x0000000000000000       0x5c lib/built-in.o
 .text.fdtdec_setup_memory_banksize
                0x0000000000000000       0x7c lib/built-in.o
 .text.print_freq
                0x0000000000000000      0x158 lib/built-in.o
 .text.crc32_wd_buf
                0x0000000000000000       0x3c lib/built-in.o
 .text.copy_from_user
                0x0000000000000000       0x18 lib/built-in.o
 .text.get_mem  0x0000000000000000       0x2c lib/built-in.o
 .text.kmem_cache_alloc
                0x0000000000000000        0xc lib/built-in.o
 .text.membuff_purge
                0x0000000000000000        0xc lib/built-in.o
 .text.membuff_putraw
                0x0000000000000000       0xb0 lib/built-in.o
 .text.membuff_putbyte
                0x0000000000000000       0x3c lib/built-in.o
 .text.membuff_getraw
                0x0000000000000000       0x84 lib/built-in.o
 .text.membuff_getbyte
                0x0000000000000000       0x3c lib/built-in.o
 .text.membuff_peekbyte
                0x0000000000000000       0x3c lib/built-in.o
 .text.membuff_get
                0x0000000000000000       0x9c lib/built-in.o
 .text.membuff_put
                0x0000000000000000       0x88 lib/built-in.o
 .text.membuff_isempty
                0x0000000000000000       0x10 lib/built-in.o
 .text.membuff_avail
                0x0000000000000000       0x54 lib/built-in.o
 .text.membuff_size
                0x0000000000000000       0x10 lib/built-in.o
 .text.membuff_makecontig
                0x0000000000000000       0xa4 lib/built-in.o
 .text.membuff_free
                0x0000000000000000       0x3c lib/built-in.o
 .text.membuff_readline
                0x0000000000000000       0xa8 lib/built-in.o
 .text.membuff_extend_by
                0x0000000000000000       0xe0 lib/built-in.o
 .text.membuff_init
                0x0000000000000000       0x10 lib/built-in.o
 .text.membuff_new
                0x0000000000000000       0x48 lib/built-in.o
 .text.membuff_uninit
                0x0000000000000000        0xc lib/built-in.o
 .text.membuff_dispose
                0x0000000000000000       0x28 lib/built-in.o
 .text.strswab  0x0000000000000000       0x3c lib/built-in.o
 .text.memscan  0x0000000000000000       0x24 lib/built-in.o
 .text.memchr_inv
                0x0000000000000000      0x100 lib/built-in.o
 .text.table_compute_checksum
                0x0000000000000000       0x2c lib/built-in.o
 .text.get_ticks
                0x0000000000000000       0x40 lib/built-in.o
 .text.timer_init
                0x0000000000000000        0x8 lib/built-in.o
 .text.vsnprintf
                0x0000000000000000       0x50 lib/built-in.o
 .text.scnprintf
                0x0000000000000000       0x50 lib/built-in.o
 .text.__assert_fail
                0x0000000000000000       0x18 lib/built-in.o
 .text.print_grouped_ull
                0x0000000000000000       0x9c lib/built-in.o
 .text.str2long
                0x0000000000000000       0x50 lib/built-in.o
 .text.panic_str
                0x0000000000000000       0x10 lib/built-in.o
 .text.strmhz   0x0000000000000000       0x68 lib/built-in.o
 .rodata.z_errmsg
                0x0000000000000000       0x50 lib/built-in.o
 .rodata.fdt_node_check_compatible.str1.1
                0x0000000000000000        0xb lib/built-in.o
 .rodata.fdt_find_regions
                0x0000000000000000       0x12 lib/built-in.o
 .rodata.fdt_create_empty_tree.str1.1
                0x0000000000000000        0x1 lib/built-in.o
 .rodata.fdt_next_region
                0x0000000000000000       0x12 lib/built-in.o
 .rodata.fdt_add_alias_regions.str1.1
                0x0000000000000000        0x8 lib/built-in.o
 .rodata.crc7_syndrome_table
                0x0000000000000000      0x100 lib/built-in.o
 .rodata.sha1_der_prefix
                0x0000000000000000        0xf lib/built-in.o
 .rodata.sha256_der_prefix
                0x0000000000000000       0x13 lib/built-in.o
 .rodata.compat_names
                0x0000000000000000      0x130 lib/built-in.o
 .rodata.fdtdec_decode_display_timing.str1.1
                0x0000000000000000       0xca lib/built-in.o
 .rodata.fdtdec_decode_memory_region.str1.1
                0x0000000000000000       0x21 lib/built-in.o
 .rodata.fdtdec_get_chosen_prop.str1.1
                0x0000000000000000        0x8 lib/built-in.o
 .rodata.fdtdec_next_alias.str1.1
                0x0000000000000000        0x7 lib/built-in.o
 .rodata.fdtdec_read_fmap_entry.str1.1
                0x0000000000000000       0x1b lib/built-in.o
 .rodata.names.5846
                0x0000000000000000        0x3 lib/built-in.o
 .rodata.__assert_fail.str1.1
                0x0000000000000000       0x22 lib/built-in.o
 .rodata.print_grouped_ull.str1.1
                0x0000000000000000        0xb lib/built-in.o
 .rodata.strmhz.str1.1
                0x0000000000000000        0xb lib/built-in.o
 .data          0x0000000000000000        0x0 lib/built-in.o
 .data.cur      0x0000000000000000        0x4 lib/built-in.o
 .data.current  0x0000000000000000        0x8 lib/built-in.o
 .bss           0x0000000000000000        0x0 lib/built-in.o
 .text          0x0000000000000000        0x0 net/built-in.o
 .text.add_ip_checksums
                0x0000000000000000       0x40 net/built-in.o
 .text.eth_init_state_only
                0x0000000000000000       0x38 net/built-in.o
 .text.eth_is_active
                0x0000000000000000       0x34 net/built-in.o
 .text.net_get_udp_handler
                0x0000000000000000        0xc net/built-in.o
 .text.net_set_arp_handler
                0x0000000000000000       0x1c net/built-in.o
 .text.random_port
                0x0000000000000000       0x20 net/built-in.o
 .text.vlan_to_string
                0x0000000000000000       0x44 net/built-in.o
 .text.getenv_vlan
                0x0000000000000000       0x14 net/built-in.o
 .rodata.vlan_to_string.str1.1
                0x0000000000000000        0x8 net/built-in.o
 .data          0x0000000000000000        0x0 net/built-in.o
 .data.tftp_timeout_ms
                0x0000000000000000        0x8 net/built-in.o
 .bss           0x0000000000000000        0x0 net/built-in.o
 .bss.net_busy_flag
                0x0000000000000000        0x4 net/built-in.o
 .text          0x0000000000000000        0x0 test/dm/built-in.o
 .data          0x0000000000000000        0x0 test/dm/built-in.o
 .bss           0x0000000000000000        0x0 test/dm/built-in.o

Memory Configuration

Name             Origin             Length             Attributes
*default*        0x0000000000000000 0xffffffffffffffff

Linker script and memory map

Address of section .text set to 0x40200000
                0x0000000000000000                . = 0x0
                0x0000000000000000                . = ALIGN (0x8)

.text           0x0000000040200000    0x5ecd8
 *(.__image_copy_start)
 .__image_copy_start
                0x0000000040200000        0x0 arch/arm/lib/built-in.o
                0x0000000040200000                __image_copy_start
 arch/arm/cpu/armv8/start.o(.text*)
 .text          0x0000000040200000       0xfc arch/arm/cpu/armv8/start.o
                0x0000000040200000                _start
                0x0000000040200008                _TEXT_BASE
                0x0000000040200010                _end_ofs
                0x0000000040200018                _bss_start_ofs
                0x0000000040200020                _bss_end_ofs
                0x000000004020002c                save_boot_params_ret
                0x000000004020008c                apply_core_errata
                0x00000000402000b0                lowlevel_init
                0x00000000402000bc                smp_kick_all_cpus
                0x00000000402000c0                c_runtime_cpu_setup
 *(.text*)
 *fill*         0x00000000402000fc      0x704 
 .text          0x0000000040200800      0xe98 arch/arm/cpu/armv8/built-in.o
                0x0000000040200800                vectors
                0x0000000040201038                __asm_dcache_level
                0x000000004020109c                __asm_dcache_all
                0x00000000402010fc                __asm_flush_dcache_all
                0x0000000040201104                __asm_invalidate_dcache_all
                0x000000004020110c                __asm_flush_dcache_range
                0x0000000040201140                __asm_invalidate_icache_all
                0x000000004020114c                __asm_invalidate_l3_dcache
                0x0000000040201154                __asm_flush_l3_dcache
                0x000000004020115c                __asm_invalidate_l3_icache
                0x0000000040201164                __asm_switch_ttbr
                0x0000000040201244                __asm_invalidate_tlb_all
                0x0000000040201290                armv8_switch_to_el2
                0x000000004020131c                armv8_switch_to_el1
                0x00000000402013c0                armv8_el2_to_aarch32
                0x0000000040201500                rom_pointer
                0x0000000040201600                save_boot_params
                0x000000004020164c                restore_boot_params
 .text.cleanup_before_linux
                0x0000000040201698       0x28 arch/arm/cpu/armv8/built-in.o
                0x0000000040201698                cleanup_before_linux
 .text.get_tbclk
                0x00000000402016c0        0x8 arch/arm/cpu/armv8/built-in.o
                0x00000000402016c0                get_tbclk
 .text.get_ticks
                0x00000000402016c8       0x10 arch/arm/cpu/armv8/built-in.o
                0x00000000402016c8                get_ticks
 .text.count_required_pts
                0x00000000402016d8       0xf8 arch/arm/cpu/armv8/built-in.o
 .text.create_table
                0x00000000402017d0       0x70 arch/arm/cpu/armv8/built-in.o
 .text.split_block
                0x0000000040201840       0x9c arch/arm/cpu/armv8/built-in.o
 .text.get_tcr  0x00000000402018dc       0xe4 arch/arm/cpu/armv8/built-in.o
                0x00000000402018dc                get_tcr
 .text.find_pte
                0x00000000402019c0       0x9c arch/arm/cpu/armv8/built-in.o
 .text.get_page_table_size
                0x0000000040201a5c       0x48 arch/arm/cpu/armv8/built-in.o
                0x0000000040201a5c                get_page_table_size
 .text.setup_pgtables
                0x0000000040201aa4      0x178 arch/arm/cpu/armv8/built-in.o
                0x0000000040201aa4                setup_pgtables
 .text.mmu_setup
                0x0000000040201c1c      0x13c arch/arm/cpu/armv8/built-in.o
                0x0000000040201c1c                mmu_setup
 .text.invalidate_dcache_all
                0x0000000040201d58       0x14 arch/arm/cpu/armv8/built-in.o
                0x0000000040201d58                invalidate_dcache_all
 .text.flush_dcache_all
                0x0000000040201d6c       0x14 arch/arm/cpu/armv8/built-in.o
                0x0000000040201d6c                flush_dcache_all
 .text.invalidate_dcache_range
                0x0000000040201d80        0x4 arch/arm/cpu/armv8/built-in.o
                0x0000000040201d80                invalidate_dcache_range
 .text.flush_dcache_range
                0x0000000040201d84        0x4 arch/arm/cpu/armv8/built-in.o
                0x0000000040201d84                flush_dcache_range
 .text.dcache_enable
                0x0000000040201d88      0x110 arch/arm/cpu/armv8/built-in.o
                0x0000000040201d88                dcache_enable
 .text.dcache_disable
                0x0000000040201e98       0x84 arch/arm/cpu/armv8/built-in.o
                0x0000000040201e98                dcache_disable
 .text.dcache_status
                0x0000000040201f1c       0x34 arch/arm/cpu/armv8/built-in.o
                0x0000000040201f1c                dcache_status
 .text.icache_disable
                0x0000000040201f50       0x64 arch/arm/cpu/armv8/built-in.o
                0x0000000040201f50                icache_disable
 .text.icache_status
                0x0000000040201fb4       0x34 arch/arm/cpu/armv8/built-in.o
                0x0000000040201fb4                icache_status
 .text.invalidate_icache_all
                0x0000000040201fe8       0x14 arch/arm/cpu/armv8/built-in.o
                0x0000000040201fe8                invalidate_icache_all
 .text.icache_enable
                0x0000000040201ffc       0x74 arch/arm/cpu/armv8/built-in.o
                0x0000000040201ffc                icache_enable
 .text.enable_caches
                0x0000000040202070       0x14 arch/arm/cpu/armv8/built-in.o
                0x0000000040202070                enable_caches
 .text.enable_ocotp_clk
                0x0000000040202084       0x10 arch/arm/cpu/armv8/built-in.o
                0x0000000040202084                enable_ocotp_clk
 .text.enable_i2c_clk
                0x0000000040202094       0x3c arch/arm/cpu/armv8/built-in.o
                0x0000000040202094                enable_i2c_clk
 .text.decode_frac_pll
                0x00000000402020d0       0xdc arch/arm/cpu/armv8/built-in.o
                0x00000000402020d0                decode_frac_pll
 .text.decode_sscg_pll
                0x00000000402021ac      0x238 arch/arm/cpu/armv8/built-in.o
                0x00000000402021ac                decode_sscg_pll
 .text.get_root_src_clk
                0x00000000402023e4       0x50 arch/arm/cpu/armv8/built-in.o
                0x00000000402023e4                get_root_src_clk
 .text.get_root_clk
                0x0000000040202434       0x80 arch/arm/cpu/armv8/built-in.o
                0x0000000040202434                get_root_clk
 .text.do_mscale_showclocks
                0x00000000402024b4      0x24c arch/arm/cpu/armv8/built-in.o
                0x00000000402024b4                do_mscale_showclocks
 .text.mxc_get_clock
                0x0000000040202700       0x5c arch/arm/cpu/armv8/built-in.o
                0x0000000040202700                mxc_get_clock
 .text.imx_get_uartclk
                0x000000004020275c        0x8 arch/arm/cpu/armv8/built-in.o
                0x000000004020275c                imx_get_uartclk
 .text.frac_pll_init
                0x0000000040202764       0x8c arch/arm/cpu/armv8/built-in.o
                0x0000000040202764                frac_pll_init
 .text.clock_init
                0x00000000402027f0      0x2c4 arch/arm/cpu/armv8/built-in.o
                0x00000000402027f0                clock_init
 .text.set_clk_qspi
                0x0000000040202ab4       0x2c arch/arm/cpu/armv8/built-in.o
                0x0000000040202ab4                set_clk_qspi
 .text.set_clk_enet
                0x0000000040202ae0       0xa8 arch/arm/cpu/armv8/built-in.o
                0x0000000040202ae0                set_clk_enet
 .text.imx_get_fecclk
                0x0000000040202b88        0x8 arch/arm/cpu/armv8/built-in.o
                0x0000000040202b88                imx_get_fecclk
 .text.select   0x0000000040202b90       0x3c arch/arm/cpu/armv8/built-in.o
 .text.get_clk_root_target
                0x0000000040202bcc       0x80 arch/arm/cpu/armv8/built-in.o
 .text.clock_get_target_val
                0x0000000040202c4c       0x68 arch/arm/cpu/armv8/built-in.o
                0x0000000040202c4c                clock_get_target_val
 .text.clock_set_target_val
                0x0000000040202cb4       0x64 arch/arm/cpu/armv8/built-in.o
                0x0000000040202cb4                clock_set_target_val
 .text.clock_root_enabled
                0x0000000040202d18       0x74 arch/arm/cpu/armv8/built-in.o
                0x0000000040202d18                clock_root_enabled
 .text.clock_enable
                0x0000000040202d8c       0x4c arch/arm/cpu/armv8/built-in.o
                0x0000000040202d8c                clock_enable
 .text.clock_get_prediv
                0x0000000040202dd8       0x84 arch/arm/cpu/armv8/built-in.o
                0x0000000040202dd8                clock_get_prediv
 .text.clock_get_postdiv
                0x0000000040202e5c       0xa4 arch/arm/cpu/armv8/built-in.o
                0x0000000040202e5c                clock_get_postdiv
 .text.clock_get_src
                0x0000000040202f00       0x70 arch/arm/cpu/armv8/built-in.o
                0x0000000040202f00                clock_get_src
 .text.get_cpu_speed_grade_hz
                0x0000000040202f70       0x20 arch/arm/cpu/armv8/built-in.o
                0x0000000040202f70                get_cpu_speed_grade_hz
 .text.get_cpu_temp_grade
                0x0000000040202f90       0x70 arch/arm/cpu/armv8/built-in.o
                0x0000000040202f90                get_cpu_temp_grade
 .text.timer_init
                0x0000000040203000       0x10 arch/arm/cpu/armv8/built-in.o
                0x0000000040203000                timer_init
 .text.set_wdog_reset
                0x0000000040203010       0x28 arch/arm/cpu/armv8/built-in.o
                0x0000000040203010                set_wdog_reset
 .text.get_cpu_rev
                0x0000000040203038       0x58 arch/arm/cpu/armv8/built-in.o
                0x0000000040203038                get_cpu_rev
 .text.imx_set_wdog_powerdown
                0x0000000040203090       0x2c arch/arm/cpu/armv8/built-in.o
                0x0000000040203090                imx_set_wdog_powerdown
 .text.arch_cpu_init
                0x00000000402030bc       0x24 arch/arm/cpu/armv8/built-in.o
                0x00000000402030bc                arch_cpu_init
 .text.imx_get_mac_from_fuse
                0x00000000402030e0       0x40 arch/arm/cpu/armv8/built-in.o
                0x00000000402030e0                imx_get_mac_from_fuse
 .text.arch_auxiliary_core_up
                0x0000000040203120       0x54 arch/arm/cpu/armv8/built-in.o
                0x0000000040203120                arch_auxiliary_core_up
 .text.arch_auxiliary_core_check_up
                0x0000000040203174       0x2c arch/arm/cpu/armv8/built-in.o
                0x0000000040203174                arch_auxiliary_core_check_up
 .text.get_boot_device
                0x00000000402031a0       0x94 arch/arm/cpu/armv8/built-in.o
                0x00000000402031a0                get_boot_device
 .text.is_usb_boot
                0x0000000040203234       0x1c arch/arm/cpu/armv8/built-in.o
                0x0000000040203234                is_usb_boot
 .text.mmc_get_env_dev
                0x0000000040203250       0x50 arch/arm/cpu/armv8/built-in.o
                0x0000000040203250                mmc_get_env_dev
 .text.ft_system_setup
                0x00000000402032a0      0x3e4 arch/arm/cpu/armv8/built-in.o
                0x00000000402032a0                ft_system_setup
 .text.reset_cpu
                0x0000000040203684       0x14 arch/arm/cpu/armv8/built-in.o
                0x0000000040203684                reset_cpu
 .text.arch_misc_init
                0x0000000040203698       0x60 arch/arm/cpu/armv8/built-in.o
                0x0000000040203698                arch_misc_init
 .text.imx8m_usb_power
                0x00000000402036f8       0x48 arch/arm/cpu/armv8/built-in.o
                0x00000000402036f8                imx8m_usb_power
 .text.imx8m_get_gmode
                0x0000000040203740        0xc arch/arm/cpu/armv8/built-in.o
                0x0000000040203740                imx8m_get_gmode
 .text.imx8m_show_gmode
                0x000000004020374c       0x68 arch/arm/cpu/armv8/built-in.o
                0x000000004020374c                imx8m_show_gmode
 .text.imx8m_get_gd
                0x00000000402037b4        0xc arch/arm/cpu/armv8/built-in.o
                0x00000000402037b4                imx8m_get_gd
 .text.imx8m_create_color_bar
                0x00000000402037c0       0x9c arch/arm/cpu/armv8/built-in.o
                0x00000000402037c0                imx8m_create_color_bar
 .text.imx8m_display_shutdown
                0x000000004020385c       0x38 arch/arm/cpu/armv8/built-in.o
                0x000000004020385c                imx8m_display_shutdown
 .text.video_hw_init
                0x0000000040203894      0x8f0 arch/arm/cpu/armv8/built-in.o
                0x0000000040203894                video_hw_init
 .text.imx8m_fb_disable
                0x0000000040204184       0x24 arch/arm/cpu/armv8/built-in.o
                0x0000000040204184                imx8m_fb_disable
 .text.imx8m_fb_init
                0x00000000402041a8       0xc4 arch/arm/cpu/armv8/built-in.o
                0x00000000402041a8                imx8m_fb_init
 .text.imx_iomux_v3_setup_pad
                0x000000004020426c       0xb0 arch/arm/imx-common/built-in.o
                0x000000004020426c                imx_iomux_v3_setup_pad
 .text.imx_iomux_v3_setup_multiple_pads
                0x000000004020431c       0x40 arch/arm/imx-common/built-in.o
                0x000000004020431c                imx_iomux_v3_setup_multiple_pads
 .text.do_bootaux
                0x000000004020435c       0xa8 arch/arm/imx-common/built-in.o
                0x000000004020435c                do_bootaux
 .text.board_video_skip
                0x0000000040204404      0x1c4 arch/arm/imx-common/built-in.o
                0x0000000040204404                board_video_skip
 .text.get_imx_type
                0x00000000402045c8       0x28 arch/arm/imx-common/built-in.o
                0x00000000402045c8                get_imx_type
 .text.print_cpuinfo
                0x00000000402045f0      0x254 arch/arm/imx-common/built-in.o
                0x00000000402045f0                print_cpuinfo
 .text.arch_preboot_os
                0x0000000040204844        0x4 arch/arm/imx-common/built-in.o
                0x0000000040204844                arch_preboot_os
 .text.call_imx_sip
                0x0000000040204848       0x28 arch/arm/imx-common/built-in.o
                0x0000000040204848                call_imx_sip
 .text          0x0000000040204870      0x1b4 arch/arm/lib/built-in.o
                0x0000000040204870                _main
                0x00000000402048f8                relocate_code
                0x00000000402049d0                ccn504_add_masters_to_dvm
                0x00000000402049ec                ccn504_set_qos
                0x0000000040204a00                ccn504_set_aux
                0x0000000040204a14                gic_init_secure
                0x0000000040204a18                gic_init_secure_percpu
                0x0000000040204a1c                gic_kick_secondary_cpus
                0x0000000040204a20                gic_wait_for_interrupt
 .text.arch_fixup_fdt
                0x0000000040204a24       0x30 arch/arm/lib/built-in.o
                0x0000000040204a24                arch_fixup_fdt
 .text.boot_prep_linux
                0x0000000040204a54       0x58 arch/arm/lib/built-in.o
 .text.arch_lmb_reserve
                0x0000000040204aac       0x24 arch/arm/lib/built-in.o
                0x0000000040204aac                arch_lmb_reserve
 .text.board_quiesce_devices
                0x0000000040204ad0        0x4 arch/arm/lib/built-in.o
                0x0000000040204ad0                board_quiesce_devices
 .text.update_os_arch_secondary_cores
                0x0000000040204ad4        0x4 arch/arm/lib/built-in.o
                0x0000000040204ad4                update_os_arch_secondary_cores
 .text.boot_jump_linux
                0x0000000040204ad8       0xc0 arch/arm/lib/built-in.o
 .text.do_bootm_linux
                0x0000000040204b98       0x74 arch/arm/lib/built-in.o
                0x0000000040204b98                do_bootm_linux
 .text.boot_prep_vxworks
                0x0000000040204c0c       0x50 arch/arm/lib/built-in.o
                0x0000000040204c0c                boot_prep_vxworks
 .text.boot_jump_vxworks
                0x0000000040204c5c        0xc arch/arm/lib/built-in.o
                0x0000000040204c5c                boot_jump_vxworks
 .text.arch_reserve_stacks
                0x0000000040204c68       0x10 arch/arm/lib/built-in.o
                0x0000000040204c68                arch_reserve_stacks
 .text.interrupt_init
                0x0000000040204c78        0x8 arch/arm/lib/built-in.o
                0x0000000040204c78                interrupt_init
 .text.enable_interrupts
                0x0000000040204c80        0x4 arch/arm/lib/built-in.o
                0x0000000040204c80                enable_interrupts
 .text.disable_interrupts
                0x0000000040204c84        0x8 arch/arm/lib/built-in.o
                0x0000000040204c84                disable_interrupts
 .text.show_regs
                0x0000000040204c8c       0xa8 arch/arm/lib/built-in.o
                0x0000000040204c8c                show_regs
 .text.do_bad_sync
                0x0000000040204d34       0x3c arch/arm/lib/built-in.o
                0x0000000040204d34                do_bad_sync
 .text.do_bad_irq
                0x0000000040204d70       0x3c arch/arm/lib/built-in.o
                0x0000000040204d70                do_bad_irq
 .text.do_bad_fiq
                0x0000000040204dac       0x3c arch/arm/lib/built-in.o
                0x0000000040204dac                do_bad_fiq
 .text.do_bad_error
                0x0000000040204de8       0x3c arch/arm/lib/built-in.o
                0x0000000040204de8                do_bad_error
 .text.do_sync  0x0000000040204e24       0x3c arch/arm/lib/built-in.o
                0x0000000040204e24                do_sync
 .text.do_irq   0x0000000040204e60       0x3c arch/arm/lib/built-in.o
                0x0000000040204e60                do_irq
 .text.do_fiq   0x0000000040204e9c       0x3c arch/arm/lib/built-in.o
                0x0000000040204e9c                do_fiq
 .text.do_error
                0x0000000040204ed8       0x3c arch/arm/lib/built-in.o
                0x0000000040204ed8                do_error
 .text.reset_misc
                0x0000000040204f14        0x4 arch/arm/lib/built-in.o
                0x0000000040204f14                reset_misc
 .text.do_reset
                0x0000000040204f18       0x38 arch/arm/lib/built-in.o
                0x0000000040204f18                do_reset
 .text.flush_cache
                0x0000000040204f50        0x8 arch/arm/lib/built-in.o
                0x0000000040204f50                flush_cache
 .text.mmc_map_to_kernel_blk
                0x0000000040204f58        0x4 board/freescale/common/built-in.o
                0x0000000040204f58                mmc_map_to_kernel_blk
 .text.board_late_mmc_env_init
                0x0000000040204f5c       0x9c board/freescale/common/built-in.o
                0x0000000040204f5c                board_late_mmc_env_init
 .text.tcpc_log
                0x0000000040204ff8       0x80 board/freescale/common/built-in.o
 .text.tcpc_set_cc_to_source
                0x0000000040205078       0x6c board/freescale/common/built-in.o
                0x0000000040205078                tcpc_set_cc_to_source
 .text.tcpc_set_cc_to_sink
                0x00000000402050e4       0x6c board/freescale/common/built-in.o
                0x00000000402050e4                tcpc_set_cc_to_sink
 .text.tcpc_set_plug_orientation
                0x0000000040205150       0xac board/freescale/common/built-in.o
                0x0000000040205150                tcpc_set_plug_orientation
 .text.tcpc_get_cc_status
                0x00000000402051fc      0x238 board/freescale/common/built-in.o
                0x00000000402051fc                tcpc_get_cc_status
 .text.tcpc_pd_sink_check_charging
                0x0000000040205434       0x7c board/freescale/common/built-in.o
 .text.tcpc_clear_alert
                0x00000000402054b0       0x64 board/freescale/common/built-in.o
                0x00000000402054b0                tcpc_clear_alert
 .text.tcpc_send_command
                0x0000000040205514       0x64 board/freescale/common/built-in.o
                0x0000000040205514                tcpc_send_command
 .text.tcpc_polling_reg
                0x0000000040205578       0xb0 board/freescale/common/built-in.o
                0x0000000040205578                tcpc_polling_reg
 .text.tcpc_print_log
                0x0000000040205628       0x48 board/freescale/common/built-in.o
                0x0000000040205628                tcpc_print_log
 .text.tcpc_setup_dfp_mode
                0x0000000040205670      0x14c board/freescale/common/built-in.o
                0x0000000040205670                tcpc_setup_dfp_mode
 .text.tcpc_disable_src_vbus
                0x00000000402057bc       0x40 board/freescale/common/built-in.o
                0x00000000402057bc                tcpc_disable_src_vbus
 .text.tcpc_setup_ufp_mode
                0x00000000402057fc      0x134 board/freescale/common/built-in.o
                0x00000000402057fc                tcpc_setup_ufp_mode
 .text.tcpc_init
                0x0000000040205930      0x9a8 board/freescale/common/built-in.o
                0x0000000040205930                tcpc_init
 .text.ss_mux_select
                0x00000000402062d8       0x18 board/freescale/imx8mq_evk/built-in.o
                0x00000000402062d8                ss_mux_select
 .text.board_qspi_init
                0x00000000402062f0       0x28 board/freescale/imx8mq_evk/built-in.o
                0x00000000402062f0                board_qspi_init
 .text.board_early_init_f
                0x0000000040206318       0x3c board/freescale/imx8mq_evk/built-in.o
                0x0000000040206318                board_early_init_f
 .text.board_postclk_init
                0x0000000040206354        0x8 board/freescale/imx8mq_evk/built-in.o
                0x0000000040206354                board_postclk_init
 .text.dram_init
                0x000000004020635c       0x28 board/freescale/imx8mq_evk/built-in.o
                0x000000004020635c                dram_init
 .text.ft_board_setup
                0x0000000040206384        0x8 board/freescale/imx8mq_evk/built-in.o
                0x0000000040206384                ft_board_setup
 .text.board_phy_config
                0x000000004020638c       0xa4 board/freescale/imx8mq_evk/built-in.o
                0x000000004020638c                board_phy_config
 .text.usb_gadget_handle_interrupts
                0x0000000040206430       0x1c board/freescale/imx8mq_evk/built-in.o
                0x0000000040206430                usb_gadget_handle_interrupts
 .text.board_usb_init
                0x000000004020644c      0x100 board/freescale/imx8mq_evk/built-in.o
                0x000000004020644c                board_usb_init
 .text.board_usb_cleanup
                0x000000004020654c       0x60 board/freescale/imx8mq_evk/built-in.o
                0x000000004020654c                board_usb_cleanup
 .text.board_init
                0x00000000402065ac       0xf0 board/freescale/imx8mq_evk/built-in.o
                0x00000000402065ac                board_init
 .text.board_mmc_get_env_dev
                0x000000004020669c        0x4 board/freescale/imx8mq_evk/built-in.o
                0x000000004020669c                board_mmc_get_env_dev
 .text.board_late_init
                0x00000000402066a0       0x18 board/freescale/imx8mq_evk/built-in.o
                0x00000000402066a0                board_late_init
 .text.do_go_exec
                0x00000000402066b8       0x10 cmd/built-in.o
                0x00000000402066b8                do_go_exec
 .text.do_go    0x00000000402066c8       0x88 cmd/built-in.o
 .text.do_bootm
                0x0000000040206750      0x108 cmd/built-in.o
                0x0000000040206750                do_bootm
 .text.do_bootd
                0x0000000040206858       0x2c cmd/built-in.o
                0x0000000040206858                do_bootd
 .text.image_info
                0x0000000040206884      0x128 cmd/built-in.o
 .text.do_iminfo
                0x00000000402069ac       0x74 cmd/built-in.o
 .text.bootm_maybe_autostart
                0x0000000040206a20       0x74 cmd/built-in.o
                0x0000000040206a20                bootm_maybe_autostart
 .text.do_help  0x0000000040206a94       0x3c cmd/built-in.o
 .text.do_version
                0x0000000040206ad0       0x40 cmd/built-in.o
 .text.source   0x0000000040206b10      0x1d0 cmd/built-in.o
                0x0000000040206b10                source
 .text.do_source
                0x0000000040206ce0       0x78 cmd/built-in.o
 .text.print_num
                0x0000000040206d58       0x14 cmd/built-in.o
 .text.do_bdinfo
                0x0000000040206d6c       0xfc cmd/built-in.o
 .text.bootefi_open_dp
                0x0000000040206e68       0x14 cmd/built-in.o
 .text.efi_run_in_el2
                0x0000000040206e7c       0x3c cmd/built-in.o
 .text.do_bootefi_exec
                0x0000000040206eb8      0x2d0 cmd/built-in.o
 .text.do_bootefi
                0x0000000040207188       0xa8 cmd/built-in.o
 .text.efi_set_bootdev
                0x0000000040207230      0x110 cmd/built-in.o
                0x0000000040207230                efi_set_bootdev
 .text.do_booti
                0x0000000040207340      0x160 cmd/built-in.o
                0x0000000040207340                do_booti
 .text.parse_argv
                0x00000000402074a0       0x68 cmd/built-in.o
 .text.do_icache
                0x0000000040207508       0x98 cmd/built-in.o
 .text.do_dcache
                0x00000000402075a0       0x98 cmd/built-in.o
 .text.do_coninfo
                0x0000000040207638       0xdc cmd/built-in.o
 .text.do_echo  0x0000000040207714       0xd8 cmd/built-in.o
 .text.load_elf_image_shdr
                0x00000000402077ec       0xa0 cmd/built-in.o
 .text.valid_elf_image
                0x000000004020788c       0x58 cmd/built-in.o
                0x000000004020788c                valid_elf_image
 .text.do_bootelf
                0x00000000402078e4      0x19c cmd/built-in.o
                0x00000000402078e4                do_bootelf
 .text.do_bootvx
                0x0000000040207a80      0x360 cmd/built-in.o
                0x0000000040207a80                do_bootvx
 .text.do_exit  0x0000000040207de0       0x40 cmd/built-in.o
 .text.do_ext4_size
                0x0000000040207e20        0x8 cmd/built-in.o
                0x0000000040207e20                do_ext4_size
 .text.do_ext4_load
                0x0000000040207e28        0x8 cmd/built-in.o
                0x0000000040207e28                do_ext4_load
 .text.do_ext4_ls
                0x0000000040207e30        0x8 cmd/built-in.o
                0x0000000040207e30                do_ext4_ls
 .text.do_ext4_write
                0x0000000040207e38        0x8 cmd/built-in.o
                0x0000000040207e38                do_ext4_write
 .text.do_ext2load
                0x0000000040207e40        0x8 cmd/built-in.o
                0x0000000040207e40                do_ext2load
 .text.do_ext2ls
                0x0000000040207e48        0x8 cmd/built-in.o
 .text.do_fat_size
                0x0000000040207e50        0x8 cmd/built-in.o
                0x0000000040207e50                do_fat_size
 .text.do_fat_fsload
                0x0000000040207e58        0x8 cmd/built-in.o
                0x0000000040207e58                do_fat_fsload
 .text.do_fat_ls
                0x0000000040207e60        0x8 cmd/built-in.o
 .text.do_fat_fsinfo
                0x0000000040207e68       0x94 cmd/built-in.o
 .text.fdt_valid
                0x0000000040207efc       0xcc cmd/built-in.o
 .text.is_printable_string
                0x0000000040207fc8       0x80 cmd/built-in.o
 .text.print_data
                0x0000000040208048      0x1b8 cmd/built-in.o
 .text.set_working_fdt_addr
                0x0000000040208200       0x18 cmd/built-in.o
                0x0000000040208200                set_working_fdt_addr
 .text.do_fdt   0x0000000040208218      0xf24 cmd/built-in.o
 .text.do_flinfo
                0x000000004020913c        0x8 cmd/built-in.o
 .text.do_protect
                0x0000000040209144        0xc cmd/built-in.o
 .text.do_flerase
                0x0000000040209150        0x8 cmd/built-in.o
 .text.strtou32
                0x0000000040209158       0x54 cmd/built-in.o
 .text.do_fuse  0x00000000402091ac      0x364 cmd/built-in.o
 .text.gpio_get_description
                0x0000000040209510       0xc8 cmd/built-in.o
 .text.do_gpio  0x00000000402095d8      0x35c cmd/built-in.o
 .text.do_i2c   0x0000000040209934       0x80 cmd/built-in.o
 .text.i2c_get_cur_bus
                0x00000000402099b4       0x38 cmd/built-in.o
 .text.do_i2c_bus_speed
                0x00000000402099ec       0xb0 cmd/built-in.o
 .text.do_i2c_reset
                0x0000000040209a9c       0x38 cmd/built-in.o
 .text.i2c_get_cur_bus_chip
                0x0000000040209ad4       0x40 cmd/built-in.o
 .text.do_i2c_olen
                0x0000000040209b14       0xb8 cmd/built-in.o
 .text.do_i2c_flags
                0x0000000040209bcc       0xcc cmd/built-in.o
 .text.do_i2c_probe
                0x0000000040209c98       0xcc cmd/built-in.o
 .text.do_i2c_bus_num
                0x0000000040209d64       0xb4 cmd/built-in.o
 .text.show_bus
                0x0000000040209e18       0x98 cmd/built-in.o
 .text.do_i2c_show_bus
                0x0000000040209eb0       0xc0 cmd/built-in.o
 .text.get_alen.constprop.4
                0x0000000040209f70       0x38 cmd/built-in.o
 .text.do_i2c_crc
                0x0000000040209fa8      0x180 cmd/built-in.o
 .text.mod_i2c_mem.isra.1
                0x000000004020a128      0x244 cmd/built-in.o
 .text.do_i2c_nm
                0x000000004020a36c        0x8 cmd/built-in.o
 .text.do_i2c_mm
                0x000000004020a374        0x8 cmd/built-in.o
 .text.do_i2c_md
                0x000000004020a37c      0x234 cmd/built-in.o
 .text.do_i2c_read
                0x000000004020a5b0      0x104 cmd/built-in.o
 .text.do_i2c_mw
                0x000000004020a6b4      0x148 cmd/built-in.o
 .text.do_i2c_write
                0x000000004020a7fc      0x1c8 cmd/built-in.o
 .text.do_i2c_loop
                0x000000004020a9c4      0x14c cmd/built-in.o
 .text.evalexp  0x000000004020ab10       0x8c cmd/built-in.o
 .text.evalstr  0x000000004020ab9c       0x5c cmd/built-in.o
 .text.binary_test
                0x000000004020abf8      0x1ac cmd/built-in.o
 .text.do_itest
                0x000000004020ada4       0x90 cmd/built-in.o
 .text.bin_data_init
                0x000000004020ae34       0x1c cmd/built-in.o
 .text.k_data_save
                0x000000004020ae50       0x34 cmd/built-in.o
 .text.k_data_restore
                0x000000004020ae84       0x34 cmd/built-in.o
 .text.getcxmodem
                0x000000004020aeb8       0x24 cmd/built-in.o
 .text.load_serial_ymodem
                0x000000004020aedc       0xf0 cmd/built-in.o
 .text.bin_data_char
                0x000000004020afcc       0x28 cmd/built-in.o
 .text.chk1.constprop.2
                0x000000004020aff4       0x34 cmd/built-in.o
 .text.s1_sendpacket.constprop.3
                0x000000004020b028       0x60 cmd/built-in.o
 .text.load_serial
                0x000000004020b088      0x1ec cmd/built-in.o
 .text.do_load_serial
                0x000000004020b274       0xe4 cmd/built-in.o
 .text.do_load_serial_bin
                0x000000004020b358      0x7cc cmd/built-in.o
 .text.do_mem_loop
                0x000000004020bb24      0x144 cmd/built-in.o
 .text.do_mem_md
                0x000000004020bc68       0xf4 cmd/built-in.o
 .text.do_mem_cmp
                0x000000004020bd5c      0x1a8 cmd/built-in.o
 .text.do_mem_base
                0x000000004020bf04       0x4c cmd/built-in.o
 .text.do_mem_mw
                0x000000004020bf50      0x108 cmd/built-in.o
 .text.do_mem_cp
                0x000000004020c058       0xc0 cmd/built-in.o
 .text.mod_mem.isra.0
                0x000000004020c118      0x1c8 cmd/built-in.o
 .text.do_mem_mm
                0x000000004020c2e0        0x8 cmd/built-in.o
 .text.do_mem_nm
                0x000000004020c2e8        0x8 cmd/built-in.o
 .text.extract_range
                0x000000004020c2f0       0xf8 cmd/built-in.o
 .text.do_mii   0x000000004020c3e8      0x8c4 cmd/built-in.o
 .text.do_mdio  0x000000004020ccac      0x4a4 cmd/built-in.o
 .text.do_sleep
                0x000000004020d150       0xe8 cmd/built-in.o
 .text.do_mmcops
                0x000000004020d238       0xd0 cmd/built-in.o
 .text.init_mmc_device
                0x000000004020d308       0x64 cmd/built-in.o
 .text.do_mmc_rescan
                0x000000004020d36c       0x28 cmd/built-in.o
 .text.do_mmc_rst_func
                0x000000004020d394       0xa8 cmd/built-in.o
 .text.do_mmc_partconf
                0x000000004020d43c       0xc8 cmd/built-in.o
 .text.do_mmc_boot_resize
                0x000000004020d504       0xe0 cmd/built-in.o
 .text.do_mmc_bootbus
                0x000000004020d5e4       0xc8 cmd/built-in.o
 .text.do_mmc_hwpartition
                0x000000004020d6ac      0x4f0 cmd/built-in.o
 .text.do_mmc_list
                0x000000004020db9c       0x1c cmd/built-in.o
 .text.do_mmc_dev
                0x000000004020dbb8      0x14c cmd/built-in.o
 .text.do_mmc_erase
                0x000000004020dd04      0x108 cmd/built-in.o
 .text.do_mmc_write
                0x000000004020de0c      0x128 cmd/built-in.o
 .text.do_mmc_read
                0x000000004020df34      0x10c cmd/built-in.o
 .text.do_mmcinfo
                0x000000004020e040      0x39c cmd/built-in.o
 .text.do_mmc_setdsr
                0x000000004020e3dc       0xbc cmd/built-in.o
 .text.do_mmc_part
                0x000000004020e498       0x64 cmd/built-in.o
 .text.netboot_common
                0x000000004020e4fc      0x270 cmd/built-in.o
 .text.do_bootp
                0x000000004020e76c        0xc cmd/built-in.o
 .text.do_dhcp  0x000000004020e778        0xc cmd/built-in.o
 .text.do_nfs   0x000000004020e784        0xc cmd/built-in.o
 .text.do_tftpb
                0x000000004020e790       0x58 cmd/built-in.o
                0x000000004020e790                do_tftpb
 .text.do_ping  0x000000004020e7e8       0x7c cmd/built-in.o
 .text.bytes_per_second
                0x000000004020e864       0x4c cmd/built-in.o
 .text.do_spi_flash
                0x000000004020e8b0      0x7b4 cmd/built-in.o
 .text.substitute
                0x000000004020f064      0x118 cmd/built-in.o
 .text.get_arg  0x000000004020f17c       0x68 cmd/built-in.o
 .text.regex_sub.part.1
                0x000000004020f1e4      0x2c8 cmd/built-in.o
 .text.do_setexpr
                0x000000004020f4ac      0x1a8 cmd/built-in.o
 .text.do_false
                0x000000004020f654        0x8 cmd/built-in.o
 .text.do_true  0x000000004020f65c        0x8 cmd/built-in.o
 .text.do_test  0x000000004020f664      0x358 cmd/built-in.o
 .text.usb_get_class_desc
                0x000000004020f9bc       0xc0 cmd/built-in.o
 .text.usb_find_device
                0x000000004020fa7c       0x48 cmd/built-in.o
 .text.usb_show_tree_graph
                0x000000004020fac4      0x240 cmd/built-in.o
 .text.usb_display_class_sub
                0x000000004020fd04      0x18c cmd/built-in.o
 .text.usb_display_string
                0x000000004020fe90       0x4c cmd/built-in.o
 .text.usb_display_config
                0x000000004020fedc      0x268 cmd/built-in.o
 .text.do_usbboot
                0x0000000040210144        0xc cmd/built-in.o
 .text.usb_display_desc.part.1
                0x0000000040210150      0x114 cmd/built-in.o
 .text.do_usb_start
                0x0000000040210264       0x30 cmd/built-in.o
 .text.usb_show_tree
                0x0000000040210294       0x5c cmd/built-in.o
                0x0000000040210294                usb_show_tree
 .text.do_usb   0x00000000402102f0      0x758 cmd/built-in.o
 .text.common_diskboot
                0x0000000040210a48      0x2ac cmd/built-in.o
                0x0000000040210a48                common_diskboot
 .text.ums_read_sector
                0x0000000040210cf4       0x24 cmd/built-in.o
 .text.ums_write_sector
                0x0000000040210d18       0x24 cmd/built-in.o
 .text.ums_fini
                0x0000000040210d3c       0x70 cmd/built-in.o
 .text.do_usb_mass_storage
                0x0000000040210dac      0x390 cmd/built-in.o
                0x0000000040210dac                do_usb_mass_storage
 .text.do_imgextract
                0x000000004021113c      0x3b4 cmd/built-in.o
 .text.do_pmic  0x00000000402114f0       0x7c cmd/built-in.o
 .text.do_list  0x000000004021156c      0x188 cmd/built-in.o
 .text.do_dump  0x00000000402116f4       0xfc cmd/built-in.o
 .text.do_write
                0x00000000402117f0       0xe8 cmd/built-in.o
 .text.do_read  0x00000000402118d8       0xe0 cmd/built-in.o
 .text.do_dev   0x00000000402119b8      0x168 cmd/built-in.o
 .text.do_regulator
                0x0000000040211b20       0x7c cmd/built-in.o
 .text.failure  0x0000000040211b9c       0x28 cmd/built-in.o
 .text.constraint
                0x0000000040211bc4       0x84 cmd/built-in.o
 .text.curr_dev_and_platdata
                0x0000000040211c48       0xb0 cmd/built-in.o
 .text.do_disable
                0x0000000040211cf8       0x68 cmd/built-in.o
 .text.do_enable
                0x0000000040211d60       0x68 cmd/built-in.o
 .text.do_mode  0x0000000040211dc8       0xd0 cmd/built-in.o
 .text.do_current
                0x0000000040211e98      0x104 cmd/built-in.o
 .text.do_value
                0x0000000040211f9c      0x144 cmd/built-in.o
 .text.do_info  0x00000000402120e0      0x1d4 cmd/built-in.o
 .text.do_status
                0x00000000402122b4      0x2b0 cmd/built-in.o
 .text.do_env_delete
                0x0000000040212564       0xc0 cmd/built-in.o
 .text.do_env_exists
                0x0000000040212624       0x60 cmd/built-in.o
 .text.do_env_save
                0x0000000040212684       0x30 cmd/built-in.o
 .text.do_env   0x00000000402126b4       0x80 cmd/built-in.o
 .text.env_print
                0x0000000040212734       0xc0 cmd/built-in.o
 .text.do_env_print
                0x00000000402127f4       0xe0 cmd/built-in.o
 .text.do_env_default
                0x00000000402128d4       0x90 cmd/built-in.o
 .text._do_env_set.isra.0
                0x0000000040212964      0x1bc cmd/built-in.o
 .text.do_env_set
                0x0000000040212b20       0x20 cmd/built-in.o
 .text.get_env_id
                0x0000000040212b40        0xc cmd/built-in.o
                0x0000000040212b40                get_env_id
 .text.setenv   0x0000000040212b4c       0x58 cmd/built-in.o
                0x0000000040212b4c                setenv
 .text.setenv_ulong
                0x0000000040212ba4       0x2c cmd/built-in.o
                0x0000000040212ba4                setenv_ulong
 .text.setenv_hex
                0x0000000040212bd0       0x3c cmd/built-in.o
                0x0000000040212bd0                setenv_hex
 .text.envmatch
                0x0000000040212c0c       0x80 cmd/built-in.o
                0x0000000040212c0c                envmatch
 .text.getenv_f
                0x0000000040212c8c       0xec cmd/built-in.o
                0x0000000040212c8c                getenv_f
 .text.getenv   0x0000000040212d78       0x78 cmd/built-in.o
                0x0000000040212d78                getenv
 .text.getenv_hex
                0x0000000040212df0       0x48 cmd/built-in.o
                0x0000000040212df0                getenv_hex
 .text.getenv_ulong
                0x0000000040212e38       0x40 cmd/built-in.o
                0x0000000040212e38                getenv_ulong
 .text.do_env_edit.part.3
                0x0000000040212e78       0xb4 cmd/built-in.o
 .text.do_env_edit
                0x0000000040212f2c       0x28 cmd/built-in.o
 .text.board_init_f_alloc_reserve
                0x0000000040212f54       0x10 common/built-in.o
                0x0000000040212f54                board_init_f_alloc_reserve
 .text.board_init_f_init_reserve
                0x0000000040212f64       0x30 common/built-in.o
                0x0000000040212f64                board_init_f_init_reserve
 .text.show_boot_progress
                0x0000000040212f94        0x8 common/built-in.o
                0x0000000040212f94                show_boot_progress
 .text.main_loop
                0x0000000040212f9c       0x50 common/built-in.o
                0x0000000040212f9c                main_loop
 .text.mdelay   0x0000000040212fec       0x34 common/built-in.o
 .text.dummy    0x0000000040213020        0x4 common/built-in.o
 .text.get_version
                0x0000000040213024        0x8 common/built-in.o
                0x0000000040213024                get_version
 .text.jumptable_init
                0x000000004021302c      0x1f0 common/built-in.o
                0x000000004021302c                jumptable_init
 .text.b_reset  0x000000004021321c       0x18 common/built-in.o
 .text.static_get
                0x0000000040213234       0x1c common/built-in.o
 .text.static_peek
                0x0000000040213250        0xc common/built-in.o
 .text.mapset   0x000000004021325c       0x20 common/built-in.o
 .text.syntax_err
                0x000000004021327c        0xc common/built-in.o
 .text.free_pipe_list
                0x0000000040213288       0xf0 common/built-in.o
 .text.xmalloc  0x0000000040213378       0x28 common/built-in.o
 .text.new_pipe
                0x00000000402133a0       0x24 common/built-in.o
 .text.xrealloc
                0x00000000402133c4       0x28 common/built-in.o
 .text.done_command
                0x00000000402133ec       0x94 common/built-in.o
 .text.done_pipe
                0x0000000040213480       0x50 common/built-in.o
 .text.done_word
                0x00000000402134d0      0x298 common/built-in.o
 .text.is_assignment
                0x0000000040213768       0x4c common/built-in.o
 .text.file_get
                0x00000000402137b4      0x1ec common/built-in.o
 .text.do_showvar
                0x00000000402139a0      0x108 common/built-in.o
 .text.b_addchr
                0x0000000040213aa8       0x94 common/built-in.o
 .text.b_addqchr
                0x0000000040213b3c       0x58 common/built-in.o
 .text.file_peek
                0x0000000040213b94        0xc common/built-in.o
 .text.get_local_var
                0x0000000040213ba0       0x9c common/built-in.o
                0x0000000040213ba0                get_local_var
 .text.set_local_var
                0x0000000040213c3c      0x1a4 common/built-in.o
                0x0000000040213c3c                set_local_var
 .text.insert_var_value_sub
                0x0000000040213de0      0x2c0 common/built-in.o
 .text.parse_string_outer
                0x00000000402140a0       0xec common/built-in.o
                0x00000000402140a0                parse_string_outer
 .text.run_list_real
                0x000000004021418c      0x71c common/built-in.o
 .text.parse_stream_outer
                0x00000000402148a8      0x67c common/built-in.o
 .text.parse_file_outer
                0x0000000040214f24       0x40 common/built-in.o
                0x0000000040214f24                parse_file_outer
 .text.u_boot_hush_start
                0x0000000040214f64       0x58 common/built-in.o
                0x0000000040214f64                u_boot_hush_start
 .text.bootdelay_process
                0x0000000040214fbc      0x14c common/built-in.o
                0x0000000040214fbc                bootdelay_process
 .text.autoboot_command
                0x0000000040215108      0x114 common/built-in.o
                0x0000000040215108                autoboot_command
 .text.display_text_info
                0x000000004021521c        0x8 common/built-in.o
 .text.setup_mon_len
                0x0000000040215224       0x20 common/built-in.o
 .text.reserve_round_4k
                0x0000000040215244       0x14 common/built-in.o
 .text.reserve_uboot
                0x0000000040215258       0x2c common/built-in.o
 .text.reserve_malloc
                0x0000000040215284       0x1c common/built-in.o
 .text.reserve_global_data
                0x00000000402152a0       0x1c common/built-in.o
 .text.reserve_fdt
                0x00000000402152bc       0x48 common/built-in.o
 .text.arch_cpu_init_dm
                0x0000000040215304        0x8 common/built-in.o
                0x0000000040215304                arch_cpu_init_dm
 .text.reserve_mmu
                0x000000004021530c       0x4c common/built-in.o
 .text.announce_dram_init
                0x0000000040215358       0x20 common/built-in.o
 .text.init_baud_rate
                0x0000000040215378       0x30 common/built-in.o
 .text.mark_bootstage
                0x00000000402153a8       0x1c common/built-in.o
 .text.initf_dm
                0x00000000402153c4        0x8 common/built-in.o
 .text.setup_reloc
                0x00000000402153cc       0x48 common/built-in.o
 .text.reloc_fdt
                0x0000000040215414       0x44 common/built-in.o
 .text.reserve_board
                0x0000000040215458       0x48 common/built-in.o
 .text.reserve_arch
                0x00000000402154a0        0x8 common/built-in.o
                0x00000000402154a0                reserve_arch
 .text.mach_cpu_init
                0x00000000402154a8        0x8 common/built-in.o
                0x00000000402154a8                mach_cpu_init
 .text.reserve_trace
                0x00000000402154b0        0x8 common/built-in.o
 .text.setup_machine
                0x00000000402154b8        0x8 common/built-in.o
 .text.display_new_sp
                0x00000000402154c0        0x8 common/built-in.o
 .text.initf_console_record
                0x00000000402154c8        0x8 common/built-in.o
 .text.board_add_ram_info
                0x00000000402154d0        0x4 common/built-in.o
                0x00000000402154d0                board_add_ram_info
 .text.show_dram_config
                0x00000000402154d4       0x38 common/built-in.o
 .text.dram_init_banksize
                0x000000004021550c       0x30 common/built-in.o
                0x000000004021550c                dram_init_banksize
 .text.setup_dram_config
                0x000000004021553c       0x18 common/built-in.o
 .text.board_get_usable_ram_top
                0x0000000040215554       0x20 common/built-in.o
                0x0000000040215554                board_get_usable_ram_top
 .text.board_reserve_ram_top
                0x0000000040215574        0x4 common/built-in.o
                0x0000000040215574                board_reserve_ram_top
 .text.setup_dest_addr
                0x0000000040215578       0x5c common/built-in.o
 .text.reserve_stacks
                0x00000000402155d4       0x1c common/built-in.o
 .text.board_init_f
                0x00000000402155f0       0x2c common/built-in.o
                0x00000000402155f0                board_init_f
 .text.bootstage_relocate
                0x000000004021561c        0x8 common/built-in.o
 .text.initr_trace
                0x0000000040215624        0x8 common/built-in.o
 .text.initr_reloc
                0x000000004021562c       0x18 common/built-in.o
 .text.run_main_loop
                0x0000000040215644       0x10 common/built-in.o
 .text.initr_net
                0x0000000040215654       0x24 common/built-in.o
 .text.initr_ethaddr
                0x0000000040215678       0x28 common/built-in.o
 .text.initr_enable_interrupts
                0x00000000402156a0       0x18 common/built-in.o
 .text.initr_jumptable
                0x00000000402156b8       0x18 common/built-in.o
 .text.initr_env
                0x00000000402156d0       0x70 common/built-in.o
 .text.initr_mmc
                0x0000000040215740       0x28 common/built-in.o
 .text.initr_serial
                0x0000000040215768       0x18 common/built-in.o
 .text.initr_bootstage
                0x0000000040215780       0x1c common/built-in.o
 .text.initr_dm
                0x000000004021579c       0x14 common/built-in.o
 .text.initr_malloc
                0x00000000402157b0       0x2c common/built-in.o
 .text.initr_reloc_global_data
                0x00000000402157dc       0x3c common/built-in.o
 .text.initr_caches
                0x0000000040215818       0x18 common/built-in.o
 .text.initr_announce
                0x0000000040215830        0x8 common/built-in.o
 .text.initr_barrier
                0x0000000040215838        0x8 common/built-in.o
 .text.initr_console_record
                0x0000000040215840        0x8 common/built-in.o
 .text.power_init_board
                0x0000000040215848        0x8 common/built-in.o
                0x0000000040215848                power_init_board
 .text.cpu_secondary_init_r
                0x0000000040215850        0x4 common/built-in.o
                0x0000000040215850                cpu_secondary_init_r
 .text.initr_secondary_cpu
                0x0000000040215854       0x18 common/built-in.o
 .text.board_init_r
                0x000000004021586c       0x18 common/built-in.o
                0x000000004021586c                board_init_r
 .text.checkboard
                0x0000000040215884        0x8 common/built-in.o
                0x0000000040215884                checkboard
 .text.show_board_info
                0x000000004021588c       0x3c common/built-in.o
                0x000000004021588c                show_board_info
 .text.bootm_find_images
                0x00000000402158c8       0xcc common/built-in.o
                0x00000000402158c8                bootm_find_images
 .text.bootm_decomp_image
                0x0000000040215994      0x174 common/built-in.o
                0x0000000040215994                bootm_decomp_image
 .text.bootm_disable_interrupts
                0x0000000040215b08       0x28 common/built-in.o
                0x0000000040215b08                bootm_disable_interrupts
 .text.do_bootm_states
                0x0000000040215b30      0x834 common/built-in.o
                0x0000000040215b30                do_bootm_states
 .text.do_bootm_rtems
                0x0000000040216364       0x60 common/built-in.o
 .text.do_bootm_standalone
                0x00000000402163c4       0x74 common/built-in.o
 .text.do_bootm_qnxelf
                0x0000000040216438       0x8c common/built-in.o
 .text.do_bootm_plan9
                0x00000000402164c4      0x104 common/built-in.o
 .text.do_bootvx_fdt
                0x00000000402165c8      0x118 common/built-in.o
                0x00000000402165c8                do_bootvx_fdt
 .text.do_bootm_vxworks
                0x00000000402166e0       0x3c common/built-in.o
 .text.boot_selected_os
                0x000000004021671c       0x78 common/built-in.o
                0x000000004021671c                boot_selected_os
 .text.bootm_os_get_boot_func
                0x0000000040216794       0x10 common/built-in.o
                0x0000000040216794                bootm_os_get_boot_func
 .text.regex_callback
                0x00000000402167a4      0x140 common/built-in.o
 .text.env_attr_walk
                0x00000000402168e4      0x148 common/built-in.o
                0x00000000402168e4                env_attr_walk
 .text.env_attr_lookup
                0x0000000040216a2c       0x7c common/built-in.o
                0x0000000040216a2c                env_attr_lookup
 .text.clear_callback
                0x0000000040216aa8        0xc common/built-in.o
 .text.find_env_callback
                0x0000000040216ab4       0x7c common/built-in.o
 .text.on_callbacks
                0x0000000040216b30       0x60 common/built-in.o
 .text.set_callback
                0x0000000040216b90       0x90 common/built-in.o
 .text.env_callback_init
                0x0000000040216c20       0xbc common/built-in.o
                0x0000000040216c20                env_callback_init
 .text.skip_num
                0x0000000040216cdc       0x68 common/built-in.o
 .text.clear_flags
                0x0000000040216d44        0xc common/built-in.o
 .text.on_flags
                0x0000000040216d50       0x60 common/built-in.o
 .text.env_flags_parse_vartype
                0x0000000040216db0       0x58 common/built-in.o
                0x0000000040216db0                env_flags_parse_vartype
 .text.env_flags_parse_varaccess
                0x0000000040216e08       0x5c common/built-in.o
                0x0000000040216e08                env_flags_parse_varaccess
 .text.set_flags
                0x0000000040216e64       0xac common/built-in.o
 .text.eth_validate_ethaddr_str
                0x0000000040216f10       0x98 common/built-in.o
                0x0000000040216f10                eth_validate_ethaddr_str
 .text.env_flags_init
                0x0000000040216fa8       0xc8 common/built-in.o
                0x0000000040216fa8                env_flags_init
 .text.env_flags_validate
                0x0000000040217070      0x278 common/built-in.o
                0x0000000040217070                env_flags_validate
 .text.mmc_get_env_addr
                0x00000000402172e8       0x10 common/built-in.o
                0x00000000402172e8                mmc_get_env_addr
 .text.env_init
                0x00000000402172f8       0x1c common/built-in.o
                0x00000000402172f8                env_init
 .text.saveenv  0x0000000040217314      0x128 common/built-in.o
                0x0000000040217314                saveenv
 .text.env_relocate_spec
                0x000000004021743c       0xec common/built-in.o
                0x000000004021743c                env_relocate_spec
 .text.of_bus_default_map
                0x0000000040217528       0xa4 common/built-in.o
 .text.of_bus_default_translate
                0x00000000402175cc       0xb8 common/built-in.o
 .text.of_bus_default_count_cells
                0x0000000040217684       0x70 common/built-in.o
                0x0000000040217684                of_bus_default_count_cells
 .text.fdt_find_and_setprop
                0x00000000402176f4       0x94 common/built-in.o
                0x00000000402176f4                fdt_find_and_setprop
 .text.fdt_find_or_add_subnode
                0x0000000040217788       0x74 common/built-in.o
                0x0000000040217788                fdt_find_or_add_subnode
 .text.fdt_root
                0x00000000402177fc       0x98 common/built-in.o
                0x00000000402177fc                fdt_root
 .text.fdt_initrd
                0x0000000040217894      0x1b8 common/built-in.o
                0x0000000040217894                fdt_initrd
 .text.fdt_chosen
                0x0000000040217a4c       0xbc common/built-in.o
                0x0000000040217a4c                fdt_chosen
 .text.do_fixup_by_path
                0x0000000040217b08       0x4c common/built-in.o
                0x0000000040217b08                do_fixup_by_path
 .text.fdt_fixup_memory_banks
                0x0000000040217b54      0x1e0 common/built-in.o
                0x0000000040217b54                fdt_fixup_memory_banks
 .text.fdt_fixup_memory
                0x0000000040217d34       0x2c common/built-in.o
                0x0000000040217d34                fdt_fixup_memory
 .text.fdt_fixup_ethernet
                0x0000000040217d60      0x1ac common/built-in.o
                0x0000000040217d60                fdt_fixup_ethernet
 .text.fdt_shrink_to_minimum
                0x0000000040217f0c       0xc8 common/built-in.o
                0x0000000040217f0c                fdt_shrink_to_minimum
 .text.fdt_increase_size
                0x0000000040217fd4       0x14 common/built-in.o
                0x0000000040217fd4                fdt_increase_size
 .text.fdt_translate_address
                0x0000000040217fe8      0x28c common/built-in.o
                0x0000000040217fe8                fdt_translate_address
 .text.miiphy_get_dev_by_name
                0x0000000040218274       0x68 common/built-in.o
                0x0000000040218274                miiphy_get_dev_by_name
 .text.miiphy_init
                0x00000000402182dc       0x1c common/built-in.o
                0x00000000402182dc                miiphy_init
 .text.mdio_alloc
                0x00000000402182f8       0x3c common/built-in.o
                0x00000000402182f8                mdio_alloc
 .text.mdio_free
                0x0000000040218334        0x4 common/built-in.o
                0x0000000040218334                mdio_free
 .text.mdio_register
                0x0000000040218338       0x8c common/built-in.o
                0x0000000040218338                mdio_register
 .text.mdio_unregister
                0x00000000402183c4       0x30 common/built-in.o
                0x00000000402183c4                mdio_unregister
 .text.mdio_list_devices
                0x00000000402183f4       0xc8 common/built-in.o
                0x00000000402183f4                mdio_list_devices
 .text.miiphy_set_current_dev
                0x00000000402184bc       0x48 common/built-in.o
                0x00000000402184bc                miiphy_set_current_dev
 .text.miiphy_get_active_dev
                0x0000000040218504       0x60 common/built-in.o
 .text.mdio_get_current_dev
                0x0000000040218564        0xc common/built-in.o
                0x0000000040218564                mdio_get_current_dev
 .text.mdio_phydev_for_ethname
                0x0000000040218570       0xa0 common/built-in.o
                0x0000000040218570                mdio_phydev_for_ethname
 .text.miiphy_get_current_dev
                0x0000000040218610       0x18 common/built-in.o
                0x0000000040218610                miiphy_get_current_dev
 .text.miiphy_read
                0x0000000040218628       0x5c common/built-in.o
                0x0000000040218628                miiphy_read
 .text.miiphy_write
                0x0000000040218684       0x5c common/built-in.o
                0x0000000040218684                miiphy_write
 .text.miiphy_listdev
                0x00000000402186e0       0x90 common/built-in.o
                0x00000000402186e0                miiphy_listdev
 .text.miiphy_info
                0x0000000040218770       0xa0 common/built-in.o
                0x0000000040218770                miiphy_info
 .text.miiphy_is_1000base_x
                0x0000000040218810       0x40 common/built-in.o
                0x0000000040218810                miiphy_is_1000base_x
 .text.miiphy_speed
                0x0000000040218850      0x11c common/built-in.o
                0x0000000040218850                miiphy_speed
 .text.miiphy_duplex
                0x000000004021896c      0x140 common/built-in.o
                0x000000004021896c                miiphy_duplex
 .text.usb_set_maxpacket_ep
                0x0000000040218aac       0x84 common/built-in.o
 .text.usb_stop
                0x0000000040218b30       0x74 common/built-in.o
                0x0000000040218b30                usb_stop
 .text.usb_disable_asynch
                0x0000000040218ba4       0x1c common/built-in.o
                0x0000000040218ba4                usb_disable_asynch
 .text.usb_control_msg
                0x0000000040218bc0       0xc8 common/built-in.o
                0x0000000040218bc0                usb_control_msg
 .text.usb_get_descriptor
                0x0000000040218c88       0x5c common/built-in.o
 .text.get_descriptor_len
                0x0000000040218ce4       0xa4 common/built-in.o
 .text.usb_get_string
                0x0000000040218d88       0xa4 common/built-in.o
 .text.usb_string_sub
                0x0000000040218e2c      0x114 common/built-in.o
 .text.usb_bulk_msg
                0x0000000040218f40       0x7c common/built-in.o
                0x0000000040218f40                usb_bulk_msg
 .text.usb_maxpacket
                0x0000000040218fbc       0x1c common/built-in.o
                0x0000000040218fbc                usb_maxpacket
 .text.usb_clear_halt
                0x0000000040218fd8       0xa0 common/built-in.o
                0x0000000040218fd8                usb_clear_halt
 .text.usb_get_configuration_len
                0x0000000040219078       0x78 common/built-in.o
                0x0000000040219078                usb_get_configuration_len
 .text.usb_get_configuration_no
                0x00000000402190f0       0x40 common/built-in.o
                0x00000000402190f0                usb_get_configuration_no
 .text.usb_set_interface
                0x0000000040219130       0xbc common/built-in.o
                0x0000000040219130                usb_set_interface
 .text.usb_string
                0x00000000402191ec      0x110 common/built-in.o
                0x00000000402191ec                usb_string
 .text.usb_get_dev_index
                0x00000000402192fc       0x34 common/built-in.o
                0x00000000402192fc                usb_get_dev_index
 .text.usb_alloc_new_device
                0x0000000040219330       0x90 common/built-in.o
                0x0000000040219330                usb_alloc_new_device
 .text.usb_free_device
                0x00000000402193c0       0x58 common/built-in.o
                0x00000000402193c0                usb_free_device
 .text.usb_select_config
                0x0000000040219418      0x4b0 common/built-in.o
                0x0000000040219418                usb_select_config
 .text.usb_setup_device
                0x00000000402198c8      0x194 common/built-in.o
                0x00000000402198c8                usb_setup_device
 .text.usb_new_device
                0x0000000040219a5c       0x40 common/built-in.o
                0x0000000040219a5c                usb_new_device
 .text.usb_init
                0x0000000040219a9c      0x178 common/built-in.o
                0x0000000040219a9c                usb_init
 .text.usb_device_has_child_on_port
                0x0000000040219c14       0x14 common/built-in.o
                0x0000000040219c14                usb_device_has_child_on_port
 .text.usb_set_port_feature
                0x0000000040219c28       0x4c common/built-in.o
 .text.usb_clear_port_feature
                0x0000000040219c74       0x4c common/built-in.o
 .text.usb_get_hub_descriptor
                0x0000000040219cc0       0x54 common/built-in.o
 .text.usb_hub_reset_devices
                0x0000000040219d14        0x4 common/built-in.o
                0x0000000040219d14                usb_hub_reset_devices
 .text.usb_get_port_status
                0x0000000040219d18       0x54 common/built-in.o
                0x0000000040219d18                usb_get_port_status
 .text.usb_hub_reset
                0x0000000040219d6c       0x1c common/built-in.o
                0x0000000040219d6c                usb_hub_reset
 .text.legacy_hub_port_reset
                0x0000000040219d88       0xc4 common/built-in.o
                0x0000000040219d88                legacy_hub_port_reset
 .text.usb_hub_port_connect_change
                0x0000000040219e4c      0x168 common/built-in.o
                0x0000000040219e4c                usb_hub_port_connect_change
 .text.usb_hub_configure
                0x0000000040219fb4      0x4a8 common/built-in.o
 .text.usb_hub_probe
                0x000000004021a45c       0x54 common/built-in.o
                0x000000004021a45c                usb_hub_probe
 .text.usb_stor_irq
                0x000000004021a4b0       0x18 common/built-in.o
 .text.usb_stor_BBB_reset
                0x000000004021a4c8      0x110 common/built-in.o
 .text.usb_stor_CB_reset
                0x000000004021a5d8       0xe0 common/built-in.o
 .text.usb_stor_BBB_clear_endpt_stall.isra.2
                0x000000004021a6b8       0x4c common/built-in.o
 .text.usb_stor_BBB_transport
                0x000000004021a704      0x264 common/built-in.o
 .text.usb_stor_CB_comdat
                0x000000004021a968      0x1ec common/built-in.o
 .text.usb_stor_CBI_get_status.isra.4
                0x000000004021ab54       0xdc common/built-in.o
 .text.usb_stor_CB_transport
                0x000000004021ac30      0x1fc common/built-in.o
 .text.usb_request_sense.constprop.10
                0x000000004021ae2c       0x8c common/built-in.o
 .text.usb_stor_read
                0x000000004021aeb8      0x170 common/built-in.o
 .text.usb_stor_write
                0x000000004021b028      0x170 common/built-in.o
 .text.usb_stor_info
                0x000000004021b198       0x8c common/built-in.o
                0x000000004021b198                usb_stor_info
 .text.usb_storage_probe
                0x000000004021b224      0x244 common/built-in.o
                0x000000004021b224                usb_storage_probe
 .text.usb_stor_get_info
                0x000000004021b468      0x2f4 common/built-in.o
                0x000000004021b468                usb_stor_get_info
 .text.usb_stor_scan
                0x000000004021b75c      0x224 common/built-in.o
                0x000000004021b75c                usb_stor_scan
 .text.iomux_doenv
                0x000000004021b980      0x1cc common/built-in.o
                0x000000004021b980                iomux_doenv
 .text.splash_screen_prepare
                0x000000004021bb4c        0x8 common/built-in.o
                0x000000004021bb4c                splash_screen_prepare
 .text.splash_get_pos
                0x000000004021bb54       0x98 common/built-in.o
                0x000000004021bb54                splash_get_pos
 .text.env_get_char_spec
                0x000000004021bbec        0xc common/built-in.o
                0x000000004021bbec                env_get_char_spec
 .text.env_get_addr
                0x000000004021bbf8       0x24 common/built-in.o
                0x000000004021bbf8                env_get_addr
 .text.env_get_char_memory
                0x000000004021bc1c       0x18 common/built-in.o
                0x000000004021bc1c                env_get_char_memory
 .text.env_get_char
                0x000000004021bc34       0x2c common/built-in.o
                0x000000004021bc34                env_get_char
 .text.getenv_yesno
                0x000000004021bc60       0x4c common/built-in.o
                0x000000004021bc60                getenv_yesno
 .text.getenv_default
                0x000000004021bcac       0x3c common/built-in.o
                0x000000004021bcac                getenv_default
 .text.set_default_env
                0x000000004021bce8       0xbc common/built-in.o
                0x000000004021bce8                set_default_env
 .text.set_default_vars
                0x000000004021bda4       0x2c common/built-in.o
                0x000000004021bda4                set_default_vars
 .text.env_import
                0x000000004021bdd0       0xdc common/built-in.o
                0x000000004021bdd0                env_import
 .text.env_export
                0x000000004021beac       0x94 common/built-in.o
                0x000000004021beac                env_export
 .text.env_relocate
                0x000000004021bf40       0x2c common/built-in.o
                0x000000004021bf40                env_relocate
 .text.env_complete
                0x000000004021bf6c      0x10c common/built-in.o
                0x000000004021bf6c                env_complete
 .text.console_tstc
                0x000000004021c078       0x98 common/built-in.o
 .text.console_putc
                0x000000004021c110       0x70 common/built-in.o
 .text.console_puts
                0x000000004021c180       0x70 common/built-in.o
 .text.on_console
                0x000000004021c1f0       0xc4 common/built-in.o
 .text.serial_printf
                0x000000004021c2b4       0x88 common/built-in.o
                0x000000004021c2b4                serial_printf
 .text.console_getc.isra.0
                0x000000004021c33c       0x30 common/built-in.o
 .text.putc     0x000000004021c36c       0x28 common/built-in.o
                0x000000004021c36c                putc
 .text.puts     0x000000004021c394       0x24 common/built-in.o
                0x000000004021c394                puts
 .text.getc     0x000000004021c3b8       0x4c common/built-in.o
                0x000000004021c3b8                getc
 .text.tstc     0x000000004021c404       0x24 common/built-in.o
                0x000000004021c404                tstc
 .text.ctrlc    0x000000004021c428       0x58 common/built-in.o
                0x000000004021c428                ctrlc
 .text.confirm_yesno
                0x000000004021c480       0xd4 common/built-in.o
                0x000000004021c480                confirm_yesno
 .text.disable_ctrlc
                0x000000004021c554       0x14 common/built-in.o
                0x000000004021c554                disable_ctrlc
 .text.had_ctrlc
                0x000000004021c568        0xc common/built-in.o
                0x000000004021c568                had_ctrlc
 .text.clear_ctrlc
                0x000000004021c574        0xc common/built-in.o
                0x000000004021c574                clear_ctrlc
 .text.search_device
                0x000000004021c580       0x34 common/built-in.o
                0x000000004021c580                search_device
 .text.console_assign
                0x000000004021c5b4       0xdc common/built-in.o
                0x000000004021c5b4                console_assign
 .text.console_init_f
                0x000000004021c690       0x10 common/built-in.o
                0x000000004021c690                console_init_f
 .text.stdio_print_current_devices
                0x000000004021c6a0       0xc0 common/built-in.o
                0x000000004021c6a0                stdio_print_current_devices
 .text.console_init_r
                0x000000004021c760      0x1bc common/built-in.o
                0x000000004021c760                console_init_r
 .text.sbrk     0x000000004021c91c       0x74 common/built-in.o
                0x000000004021c91c                sbrk
 .text.mem_malloc_init
                0x000000004021c990       0x28 common/built-in.o
                0x000000004021c990                mem_malloc_init
 .text.malloc_trim
                0x000000004021c9b8       0xd8 common/built-in.o
                0x000000004021c9b8                malloc_trim
 .text.free     0x000000004021ca90      0x22c common/built-in.o
                0x000000004021ca90                free
 .text.malloc   0x000000004021ccbc      0x654 common/built-in.o
                0x000000004021ccbc                malloc
 .text.calloc   0x000000004021d310      0x10c common/built-in.o
                0x000000004021d310                calloc
 .text.realloc  0x000000004021d41c      0x468 common/built-in.o
                0x000000004021d41c                realloc
 .text.memalign
                0x000000004021d884      0x194 common/built-in.o
                0x000000004021d884                memalign
 .text.initf_malloc
                0x000000004021da18       0x18 common/built-in.o
                0x000000004021da18                initf_malloc
 .text.malloc_simple
                0x000000004021da30       0x38 common/built-in.o
                0x000000004021da30                malloc_simple
 .text.on_loadaddr
                0x000000004021da68       0x40 common/built-in.o
 .text.image_check_hcrc
                0x000000004021daa8       0x50 common/built-in.o
                0x000000004021daa8                image_check_hcrc
 .text.image_check_dcrc
                0x000000004021daf8       0x44 common/built-in.o
                0x000000004021daf8                image_check_dcrc
 .text.image_multi_count
                0x000000004021db3c       0x1c common/built-in.o
                0x000000004021db3c                image_multi_count
 .text.image_multi_getimg
                0x000000004021db58       0x88 common/built-in.o
                0x000000004021db58                image_multi_getimg
 .text.getenv_bootm_low
                0x000000004021dbe0       0x34 common/built-in.o
                0x000000004021dbe0                getenv_bootm_low
 .text.getenv_bootm_size
                0x000000004021dc14       0x78 common/built-in.o
                0x000000004021dc14                getenv_bootm_size
 .text.getenv_bootm_mapsize
                0x000000004021dc8c       0x30 common/built-in.o
                0x000000004021dc8c                getenv_bootm_mapsize
 .text.memmove_wd
                0x000000004021dcbc       0x10 common/built-in.o
                0x000000004021dcbc                memmove_wd
 .text.genimg_print_size
                0x000000004021dccc       0x38 common/built-in.o
                0x000000004021dccc                genimg_print_size
 .text.get_table_entry
                0x000000004021dd04       0x20 common/built-in.o
                0x000000004021dd04                get_table_entry
 .text.get_table_entry_name
                0x000000004021dd24       0x28 common/built-in.o
                0x000000004021dd24                get_table_entry_name
 .text.genimg_get_os_name
                0x000000004021dd4c       0x18 common/built-in.o
                0x000000004021dd4c                genimg_get_os_name
 .text.genimg_get_arch_name
                0x000000004021dd64       0x18 common/built-in.o
                0x000000004021dd64                genimg_get_arch_name
 .text.genimg_get_type_name
                0x000000004021dd7c       0x18 common/built-in.o
                0x000000004021dd7c                genimg_get_type_name
 .text.genimg_get_comp_name
                0x000000004021dd94       0x18 common/built-in.o
                0x000000004021dd94                genimg_get_comp_name
 .text.image_print_contents
                0x000000004021ddac      0x1b8 common/built-in.o
                0x000000004021ddac                image_print_contents
 .text.get_table_entry_id
                0x000000004021df64       0x50 common/built-in.o
                0x000000004021df64                get_table_entry_id
 .text.genimg_get_os_id
                0x000000004021dfb4       0x18 common/built-in.o
                0x000000004021dfb4                genimg_get_os_id
 .text.genimg_get_arch_id
                0x000000004021dfcc       0x18 common/built-in.o
                0x000000004021dfcc                genimg_get_arch_id
 .text.genimg_get_type_id
                0x000000004021dfe4       0x18 common/built-in.o
                0x000000004021dfe4                genimg_get_type_id
 .text.genimg_get_comp_id
                0x000000004021dffc       0x18 common/built-in.o
                0x000000004021dffc                genimg_get_comp_id
 .text.genimg_get_kernel_addr_fit
                0x000000004021e014       0x7c common/built-in.o
                0x000000004021e014                genimg_get_kernel_addr_fit
 .text.genimg_get_format
                0x000000004021e090       0x3c common/built-in.o
                0x000000004021e090                genimg_get_format
 .text.genimg_get_image
                0x000000004021e0cc        0x4 common/built-in.o
                0x000000004021e0cc                genimg_get_image
 .text.genimg_has_config
                0x000000004021e0d0       0x10 common/built-in.o
                0x000000004021e0d0                genimg_has_config
 .text.boot_get_ramdisk
                0x000000004021e0e0      0x314 common/built-in.o
                0x000000004021e0e0                boot_get_ramdisk
 .text.boot_ramdisk_high
                0x000000004021e3f4      0x138 common/built-in.o
                0x000000004021e3f4                boot_ramdisk_high
 .text.boot_get_setup
                0x000000004021e52c        0x4 common/built-in.o
                0x000000004021e52c                boot_get_setup
 .text.boot_get_loadable
                0x000000004021e530      0x190 common/built-in.o
                0x000000004021e530                boot_get_loadable
 .text.image_setup_linux
                0x000000004021e6c0       0x6c common/built-in.o
                0x000000004021e6c0                image_setup_linux
 .text.fdt_error
                0x000000004021e72c       0x38 common/built-in.o
 .text.boot_fdt_add_mem_rsv_regions
                0x000000004021e764       0x94 common/built-in.o
                0x000000004021e764                boot_fdt_add_mem_rsv_regions
 .text.boot_relocate_fdt
                0x000000004021e7f8      0x1b8 common/built-in.o
                0x000000004021e7f8                boot_relocate_fdt
 .text.boot_get_fdt
                0x000000004021e9b0      0x3b0 common/built-in.o
                0x000000004021e9b0                boot_get_fdt
 .text.ft_verify_fdt
                0x000000004021ed60        0x8 common/built-in.o
                0x000000004021ed60                ft_verify_fdt
 .text.image_setup_libfdt
                0x000000004021ed68      0x16c common/built-in.o
                0x000000004021ed68                image_setup_libfdt
 .text.fit_image_get_address
                0x000000004021eed4       0x84 common/built-in.o
 .text.fit_parse_conf
                0x000000004021ef58       0x78 common/built-in.o
                0x000000004021ef58                fit_parse_conf
 .text.fit_parse_subimage
                0x000000004021efd0       0x78 common/built-in.o
                0x000000004021efd0                fit_parse_subimage
 .text.fit_get_desc
                0x000000004021f048       0x38 common/built-in.o
                0x000000004021f048                fit_get_desc
 .text.fit_image_get_node
                0x000000004021f080       0x48 common/built-in.o
                0x000000004021f080                fit_image_get_node
 .text.fit_image_get_os
                0x000000004021f0c8       0x4c common/built-in.o
                0x000000004021f0c8                fit_image_get_os
 .text.fit_image_get_arch
                0x000000004021f114       0x4c common/built-in.o
                0x000000004021f114                fit_image_get_arch
 .text.fit_image_get_type
                0x000000004021f160       0x4c common/built-in.o
                0x000000004021f160                fit_image_get_type
 .text.fit_image_get_comp
                0x000000004021f1ac       0x4c common/built-in.o
                0x000000004021f1ac                fit_image_get_comp
 .text.fit_image_get_load
                0x000000004021f1f8       0x10 common/built-in.o
                0x000000004021f1f8                fit_image_get_load
 .text.fit_image_get_entry
                0x000000004021f208       0x10 common/built-in.o
                0x000000004021f208                fit_image_get_entry
 .text.fit_image_get_data
                0x000000004021f218       0x50 common/built-in.o
                0x000000004021f218                fit_image_get_data
 .text.fit_image_hash_get_algo
                0x000000004021f268       0x38 common/built-in.o
                0x000000004021f268                fit_image_hash_get_algo
 .text.fit_image_hash_get_value
                0x000000004021f2a0       0x50 common/built-in.o
                0x000000004021f2a0                fit_image_hash_get_value
 .text.fit_image_print_data
                0x000000004021f2f0      0x158 common/built-in.o
 .text.fit_image_print
                0x000000004021f448      0x35c common/built-in.o
                0x000000004021f448                fit_image_print
 .text.fit_get_end
                0x000000004021f7a4       0x10 common/built-in.o
                0x000000004021f7a4                fit_get_end
 .text.calculate_hash
                0x000000004021f7b4      0x11c common/built-in.o
                0x000000004021f7b4                calculate_hash
 .text.fit_image_verify
                0x000000004021f8d0      0x218 common/built-in.o
                0x000000004021f8d0                fit_image_verify
 .text.fit_all_image_verify
                0x000000004021fae8      0x114 common/built-in.o
                0x000000004021fae8                fit_all_image_verify
 .text.fit_image_check_os
                0x000000004021fbfc       0x3c common/built-in.o
                0x000000004021fbfc                fit_image_check_os
 .text.fit_image_check_arch
                0x000000004021fc38       0x64 common/built-in.o
                0x000000004021fc38                fit_image_check_arch
 .text.fit_image_check_type
                0x000000004021fc9c       0x3c common/built-in.o
                0x000000004021fc9c                fit_image_check_type
 .text.fit_image_check_comp
                0x000000004021fcd8       0x3c common/built-in.o
                0x000000004021fcd8                fit_image_check_comp
 .text.fit_check_format
                0x000000004021fd14       0x54 common/built-in.o
                0x000000004021fd14                fit_check_format
 .text.fit_conf_get_node
                0x000000004021fd68       0x80 common/built-in.o
                0x000000004021fd68                fit_conf_get_node
 .text.fit_conf_get_prop_node
                0x000000004021fde8       0x3c common/built-in.o
                0x000000004021fde8                fit_conf_get_prop_node
 .text.fit_conf_print
                0x000000004021fe24      0x1c8 common/built-in.o
                0x000000004021fe24                fit_conf_print
 .text.fit_print_contents
                0x000000004021ffec      0x220 common/built-in.o
                0x000000004021ffec                fit_print_contents
 .text.fit_get_node_from_config
                0x000000004022020c       0x54 common/built-in.o
                0x000000004022020c                fit_get_node_from_config
 .text.fit_image_load
                0x0000000040220260      0x56c common/built-in.o
                0x0000000040220260                fit_image_load
 .text.boot_get_setup_fit
                0x00000000402207cc       0x78 common/built-in.o
                0x00000000402207cc                boot_get_setup_fit
 .text.get_effective_memsize
                0x0000000040220844        0x8 common/built-in.o
                0x0000000040220844                get_effective_memsize
 .text.nulldev_putc
                0x000000004022084c        0x4 common/built-in.o
 .text.nulldev_puts
                0x0000000040220850        0x4 common/built-in.o
 .text.nulldev_input
                0x0000000040220854        0x8 common/built-in.o
 .text.stdio_serial_tstc
                0x000000004022085c        0x4 common/built-in.o
 .text.stdio_serial_getc
                0x0000000040220860        0x4 common/built-in.o
 .text.stdio_serial_puts
                0x0000000040220864        0x8 common/built-in.o
 .text.stdio_serial_putc
                0x000000004022086c        0x8 common/built-in.o
 .text.stdio_get_list
                0x0000000040220874       0x10 common/built-in.o
                0x0000000040220874                stdio_get_list
 .text.stdio_get_by_name
                0x0000000040220884       0x6c common/built-in.o
                0x0000000040220884                stdio_get_by_name
 .text.stdio_clone
                0x00000000402208f0       0x4c common/built-in.o
                0x00000000402208f0                stdio_clone
 .text.stdio_register_dev
                0x000000004022093c       0x58 common/built-in.o
                0x000000004022093c                stdio_register_dev
 .text.stdio_register
                0x0000000040220994        0x8 common/built-in.o
                0x0000000040220994                stdio_register
 .text.stdio_init_tables
                0x000000004022099c       0x18 common/built-in.o
                0x000000004022099c                stdio_init_tables
 .text.stdio_add_devices
                0x00000000402209b4       0xd8 common/built-in.o
                0x00000000402209b4                stdio_add_devices
 .text.run_command
                0x0000000040220a8c       0x14 common/built-in.o
                0x0000000040220a8c                run_command
 .text.run_command_list
                0x0000000040220aa0       0x90 common/built-in.o
                0x0000000040220aa0                run_command_list
 .text.do_run   0x0000000040220b30       0x80 common/built-in.o
                0x0000000040220b30                do_run
 .text.cli_process_fdt
                0x0000000040220bb0       0x50 common/built-in.o
                0x0000000040220bb0                cli_process_fdt
 .text.cli_secure_boot_cmd
                0x0000000040220c00       0x74 common/built-in.o
                0x0000000040220c00                cli_secure_boot_cmd
 .text.cli_loop
                0x0000000040220c74       0x10 common/built-in.o
                0x0000000040220c74                cli_loop
 .text.cli_init
                0x0000000040220c84        0x4 common/built-in.o
                0x0000000040220c84                cli_init
 .text.delete_char.part.0
                0x0000000040220c88       0xfc common/built-in.o
 .text.cread_add_char
                0x0000000040220d84      0x100 common/built-in.o
 .text.cli_readline_into_buffer
                0x0000000040220e84      0x92c common/built-in.o
                0x0000000040220e84                cli_readline_into_buffer
 .text.cli_readline
                0x00000000402217b0       0x14 common/built-in.o
                0x00000000402217b0                cli_readline
 .text.find_cmd_tbl
                0x00000000402217c4       0xc0 common/built-in.o
                0x00000000402217c4                find_cmd_tbl
 .text.find_cmd
                0x0000000040221884       0x28 common/built-in.o
                0x0000000040221884                find_cmd
 .text.cmd_usage
                0x00000000402218ac       0x68 common/built-in.o
                0x00000000402218ac                cmd_usage
 .text._do_help
                0x0000000040221914      0x194 common/built-in.o
                0x0000000040221914                _do_help
 .text.var_complete
                0x0000000040221aa8       0x78 common/built-in.o
                0x0000000040221aa8                var_complete
 .text.cmd_auto_complete
                0x0000000040221b20      0x4a8 common/built-in.o
                0x0000000040221b20                cmd_auto_complete
 .text.cmd_get_data_size
                0x0000000040221fc8       0x6c common/built-in.o
                0x0000000040221fc8                cmd_get_data_size
 .text.cmd_process
                0x0000000040222034      0x10c common/built-in.o
                0x0000000040222034                cmd_process
 .text.cmd_process_error
                0x0000000040222140       0x38 common/built-in.o
                0x0000000040222140                cmd_process_error
 .text.hex1_bin
                0x0000000040222178       0x44 common/built-in.o
 .text.hex2_bin
                0x00000000402221bc       0x40 common/built-in.o
 .text.srec_decode
                0x00000000402221fc      0x228 common/built-in.o
                0x00000000402221fc                srec_decode
 .text.CYGACC_COMM_IF_GETC_TIMEOUT.isra.0
                0x0000000040222424       0x54 common/built-in.o
 .text.xyzModem_flush
                0x0000000040222478       0x1c common/built-in.o
 .text.xyzModem_get_hdr
                0x0000000040222494      0x21c common/built-in.o
 .text.xyzModem_stream_open
                0x00000000402226b0      0x260 common/built-in.o
                0x00000000402226b0                xyzModem_stream_open
 .text.xyzModem_stream_read
                0x0000000040222910      0x270 common/built-in.o
                0x0000000040222910                xyzModem_stream_read
 .text.xyzModem_stream_close
                0x0000000040222b80       0x3c common/built-in.o
                0x0000000040222b80                xyzModem_stream_close
 .text.xyzModem_stream_terminate
                0x0000000040222bbc       0xa4 common/built-in.o
                0x0000000040222bbc                xyzModem_stream_terminate
 .text.xyzModem_error
                0x0000000040222c60       0x28 common/built-in.o
                0x0000000040222c60                xyzModem_error
 .text.dev_print
                0x0000000040222c88      0x1c8 disk/built-in.o
                0x0000000040222c88                dev_print
 .text.part_init
                0x0000000040222e50       0x7c disk/built-in.o
                0x0000000040222e50                part_init
 .text.part_print
                0x0000000040222ecc       0x68 disk/built-in.o
                0x0000000040222ecc                part_print
 .text.part_get_info
                0x0000000040222f34       0x80 disk/built-in.o
                0x0000000040222f34                part_get_info
 .text.blk_get_device_by_str
                0x0000000040222fb4      0x15c disk/built-in.o
                0x0000000040222fb4                blk_get_device_by_str
 .text.blk_get_device_part_str
                0x0000000040223110      0x39c disk/built-in.o
                0x0000000040223110                blk_get_device_part_str
 .text.part_set_generic_name
                0x00000000402234ac       0x48 disk/built-in.o
                0x00000000402234ac                part_set_generic_name
 .text.test_block_type
                0x00000000402234f4       0x90 disk/built-in.o
 .text.print_partition_extended
                0x0000000040223584      0x24c disk/built-in.o
 .text.part_print_dos
                0x00000000402237d0       0x3c disk/built-in.o
                0x00000000402237d0                part_print_dos
 .text.part_test_dos
                0x000000004022380c       0x6c disk/built-in.o
 .text.part_get_info_extended.constprop.1
                0x0000000040223878      0x268 disk/built-in.o
 .text.part_get_info_dos
                0x0000000040223ae0       0x18 disk/built-in.o
                0x0000000040223ae0                part_get_info_dos
 .text.device_bind_common.isra.0
                0x0000000040223af8      0x324 drivers/built-in.o
 .text.alloc_priv
                0x0000000040223e1c       0x58 drivers/built-in.o
 .text.device_bind_with_driver_data
                0x0000000040223e74       0x14 drivers/built-in.o
                0x0000000040223e74                device_bind_with_driver_data
 .text.device_bind
                0x0000000040223e88       0x10 drivers/built-in.o
                0x0000000040223e88                device_bind
 .text.device_bind_by_name
                0x0000000040223e98       0x7c drivers/built-in.o
                0x0000000040223e98                device_bind_by_name
 .text.device_probe
                0x0000000040223f14      0x24c drivers/built-in.o
                0x0000000040223f14                device_probe
 .text.dev_get_platdata
                0x0000000040224160       0x34 drivers/built-in.o
                0x0000000040224160                dev_get_platdata
 .text.dev_get_parent_platdata
                0x0000000040224194       0x34 drivers/built-in.o
                0x0000000040224194                dev_get_parent_platdata
 .text.dev_get_uclass_platdata
                0x00000000402241c8       0x34 drivers/built-in.o
                0x00000000402241c8                dev_get_uclass_platdata
 .text.dev_get_priv
                0x00000000402241fc       0x34 drivers/built-in.o
                0x00000000402241fc                dev_get_priv
 .text.dev_get_uclass_priv
                0x0000000040224230       0x34 drivers/built-in.o
                0x0000000040224230                dev_get_uclass_priv
 .text.device_find_first_child
                0x0000000040224264       0x20 drivers/built-in.o
                0x0000000040224264                device_find_first_child
 .text.device_find_next_child
                0x0000000040224284       0x28 drivers/built-in.o
                0x0000000040224284                device_find_next_child
 .text.dev_get_parent
                0x00000000402242ac        0x8 drivers/built-in.o
                0x00000000402242ac                dev_get_parent
 .text.dev_get_driver_data
                0x00000000402242b4        0x8 drivers/built-in.o
                0x00000000402242b4                dev_get_driver_data
 .text.dev_get_driver_ops
                0x00000000402242bc       0x18 drivers/built-in.o
                0x00000000402242bc                dev_get_driver_ops
 .text.dev_get_uclass_name
                0x00000000402242d4       0x1c drivers/built-in.o
                0x00000000402242d4                dev_get_uclass_name
 .text.dev_get_addr_index
                0x00000000402242f0       0xc4 drivers/built-in.o
                0x00000000402242f0                dev_get_addr_index
 .text.dev_get_addr
                0x00000000402243b4        0x8 drivers/built-in.o
                0x00000000402243b4                dev_get_addr
 .text.lists_driver_lookup_name
                0x00000000402243bc       0x78 drivers/built-in.o
                0x00000000402243bc                lists_driver_lookup_name
 .text.lists_uclass_lookup
                0x0000000040224434       0x48 drivers/built-in.o
                0x0000000040224434                lists_uclass_lookup
 .text.lists_bind_drivers
                0x000000004022447c       0xb0 drivers/built-in.o
                0x000000004022447c                lists_bind_drivers
 .text.device_bind_driver_to_node
                0x000000004022452c       0x68 drivers/built-in.o
                0x000000004022452c                device_bind_driver_to_node
 .text.device_bind_driver
                0x0000000040224594        0xc drivers/built-in.o
                0x0000000040224594                device_bind_driver
 .text.lists_bind_fdt
                0x00000000402245a0      0x190 drivers/built-in.o
                0x00000000402245a0                lists_bind_fdt
 .text.dm_root  0x0000000040224730       0x30 drivers/built-in.o
                0x0000000040224730                dm_root
 .text.dm_get_translation_offset
                0x0000000040224760       0x1c drivers/built-in.o
                0x0000000040224760                dm_get_translation_offset
 .text.dm_init  0x000000004022477c       0x60 drivers/built-in.o
                0x000000004022477c                dm_init
 .text.dm_scan_platdata
                0x00000000402247dc       0x34 drivers/built-in.o
                0x00000000402247dc                dm_scan_platdata
 .text.dm_scan_fdt_node
                0x0000000040224810       0xd0 drivers/built-in.o
                0x0000000040224810                dm_scan_fdt_node
 .text.dm_scan_fdt_dev
                0x00000000402248e0       0x28 drivers/built-in.o
                0x00000000402248e0                dm_scan_fdt_dev
 .text.dm_scan_fdt
                0x0000000040224908       0x18 drivers/built-in.o
                0x0000000040224908                dm_scan_fdt
 .text.dm_scan_other
                0x0000000040224920        0x8 drivers/built-in.o
                0x0000000040224920                dm_scan_other
 .text.dm_init_and_scan
                0x0000000040224928       0x50 drivers/built-in.o
                0x0000000040224928                dm_init_and_scan
 .text.uclass_find
                0x0000000040224978       0x48 drivers/built-in.o
                0x0000000040224978                uclass_find
 .text.uclass_get
                0x00000000402249c0      0x128 drivers/built-in.o
                0x00000000402249c0                uclass_get
 .text.uclass_find_device
                0x0000000040224ae8       0x78 drivers/built-in.o
                0x0000000040224ae8                uclass_find_device
 .text.uclass_find_first_device
                0x0000000040224b60       0x48 drivers/built-in.o
                0x0000000040224b60                uclass_find_first_device
 .text.uclass_find_next_device
                0x0000000040224ba8       0x2c drivers/built-in.o
                0x0000000040224ba8                uclass_find_next_device
 .text.uclass_find_device_by_name
                0x0000000040224bd4       0x98 drivers/built-in.o
                0x0000000040224bd4                uclass_find_device_by_name
 .text.uclass_find_device_by_seq
                0x0000000040224c6c       0x90 drivers/built-in.o
                0x0000000040224c6c                uclass_find_device_by_seq
 .text.uclass_find_device_by_of_offset
                0x0000000040224cfc       0x78 drivers/built-in.o
                0x0000000040224cfc                uclass_find_device_by_of_offset
 .text.uclass_get_device_tail
                0x0000000040224d74       0x40 drivers/built-in.o
                0x0000000040224d74                uclass_get_device_tail
 .text.uclass_get_device
                0x0000000040224db4       0x38 drivers/built-in.o
                0x0000000040224db4                uclass_get_device
 .text.uclass_get_device_by_name
                0x0000000040224dec       0x38 drivers/built-in.o
                0x0000000040224dec                uclass_get_device_by_name
 .text.uclass_get_device_by_seq
                0x0000000040224e24       0x68 drivers/built-in.o
                0x0000000040224e24                uclass_get_device_by_seq
 .text.uclass_get_device_by_of_offset
                0x0000000040224e8c       0x38 drivers/built-in.o
                0x0000000040224e8c                uclass_get_device_by_of_offset
 .text.uclass_get_device_by_phandle
                0x0000000040224ec4       0xc4 drivers/built-in.o
                0x0000000040224ec4                uclass_get_device_by_phandle
 .text.uclass_first_device
                0x0000000040224f88       0x44 drivers/built-in.o
                0x0000000040224f88                uclass_first_device
 .text.uclass_next_device
                0x0000000040224fcc       0x44 drivers/built-in.o
                0x0000000040224fcc                uclass_next_device
 .text.uclass_bind_device
                0x0000000040225010       0x70 drivers/built-in.o
                0x0000000040225010                uclass_bind_device
 .text.uclass_unbind_device
                0x0000000040225080       0x4c drivers/built-in.o
                0x0000000040225080                uclass_unbind_device
 .text.uclass_resolve_seq
                0x00000000402250cc       0xb8 drivers/built-in.o
                0x00000000402250cc                uclass_resolve_seq
 .text.uclass_pre_probe_device
                0x0000000040225184       0x64 drivers/built-in.o
                0x0000000040225184                uclass_pre_probe_device
 .text.uclass_post_probe_device
                0x00000000402251e8       0x1c drivers/built-in.o
                0x00000000402251e8                uclass_post_probe_device
 .text.uclass_pre_remove_device
                0x0000000040225204       0x1c drivers/built-in.o
                0x0000000040225204                uclass_pre_remove_device
 .text.dm_warn  0x0000000040225220       0x54 drivers/built-in.o
                0x0000000040225220                dm_warn
 .text.devm_kmalloc_release
                0x0000000040225274        0x4 drivers/built-in.o
 .text.devm_kmalloc_match
                0x0000000040225278        0xc drivers/built-in.o
 .text.release_nodes
                0x0000000040225284       0x84 drivers/built-in.o
 .text._devres_alloc
                0x0000000040225308       0x40 drivers/built-in.o
                0x0000000040225308                _devres_alloc
 .text.devres_free
                0x0000000040225348       0x50 drivers/built-in.o
                0x0000000040225348                devres_free
 .text.devres_add
                0x0000000040225398       0x68 drivers/built-in.o
                0x0000000040225398                devres_add
 .text.devres_find
                0x0000000040225400       0x88 drivers/built-in.o
                0x0000000040225400                devres_find
 .text.devres_remove
                0x0000000040225488       0x2c drivers/built-in.o
                0x0000000040225488                devres_remove
 .text.devres_destroy
                0x00000000402254b4       0x28 drivers/built-in.o
                0x00000000402254b4                devres_destroy
 .text.devres_release_probe
                0x00000000402254dc        0xc drivers/built-in.o
                0x00000000402254dc                devres_release_probe
 .text.devres_release_all
                0x00000000402254e8        0xc drivers/built-in.o
                0x00000000402254e8                devres_release_all
 .text.devm_kmalloc
                0x00000000402254f4       0x40 drivers/built-in.o
                0x00000000402254f4                devm_kmalloc
 .text.devm_kfree
                0x0000000040225534       0x48 drivers/built-in.o
                0x0000000040225534                devm_kfree
 .text.device_unbind
                0x000000004022557c      0x124 drivers/built-in.o
                0x000000004022557c                device_unbind
 .text.device_free
                0x00000000402256a0       0x84 drivers/built-in.o
                0x00000000402256a0                device_free
 .text.device_remove
                0x0000000040225724      0x140 drivers/built-in.o
                0x0000000040225724                device_remove
 .text.simple_bus_post_bind
                0x0000000040225864       0x64 drivers/built-in.o
 .text.show_devices
                0x00000000402258c8      0x12c drivers/built-in.o
 .text.dm_dump_all
                0x00000000402259f4       0x54 drivers/built-in.o
                0x00000000402259f4                dm_dump_all
 .text.dm_dump_uclass
                0x0000000040225a48      0x114 drivers/built-in.o
                0x0000000040225a48                dm_dump_uclass
 .text.pinconfig_post_bind
                0x0000000040225b5c      0x100 drivers/built-in.o
 .text.pinctrl_post_bind
                0x0000000040225c5c       0x28 drivers/built-in.o
 .text.pinctrl_select_state
                0x0000000040225c84      0x198 drivers/built-in.o
                0x0000000040225c84                pinctrl_select_state
 .text.imx_pinctrl_set_state
                0x0000000040225e1c      0x2d8 drivers/built-in.o
 .text.imx_pinctrl_probe
                0x00000000402260f4      0x124 drivers/built-in.o
                0x00000000402260f4                imx_pinctrl_probe
 .text.imx_pinctrl_remove
                0x0000000040226218       0x18 drivers/built-in.o
                0x0000000040226218                imx_pinctrl_remove
 .text.imx8mq_pinctrl_probe
                0x0000000040226230       0x28 drivers/built-in.o
 .text.get_desc
                0x0000000040226258       0x54 drivers/built-in.o
 .text.blk_driver_lookup_type
                0x00000000402262ac       0x58 drivers/built-in.o
                0x00000000402262ac                blk_driver_lookup_type
 .text.blk_get_devnum_by_type
                0x0000000040226304       0x38 drivers/built-in.o
                0x0000000040226304                blk_get_devnum_by_type
 .text.blk_dselect_hwpart
                0x000000004022633c       0x48 drivers/built-in.o
                0x000000004022633c                blk_dselect_hwpart
 .text.blk_get_devnum_by_typename
                0x0000000040226384       0x94 drivers/built-in.o
                0x0000000040226384                blk_get_devnum_by_typename
 .text.blk_select_hwpart_devnum
                0x0000000040226418       0x54 drivers/built-in.o
                0x0000000040226418                blk_select_hwpart_devnum
 .text.finish_access
                0x000000004022646c       0x40 drivers/built-in.o
 .text.wait_busy
                0x00000000402264ac       0x38 drivers/built-in.o
 .text.prepare_access
                0x00000000402264e4       0xc0 drivers/built-in.o
 .text.set_timing
                0x00000000402265a4       0xa4 drivers/built-in.o
 .text.fuse_read
                0x0000000040226648       0x80 drivers/built-in.o
                0x0000000040226648                fuse_read
 .text.fuse_sense
                0x00000000402266c8       0xb0 drivers/built-in.o
                0x00000000402266c8                fuse_sense
 .text.fuse_prog
                0x0000000040226778       0xac drivers/built-in.o
                0x0000000040226778                fuse_prog
 .text.fuse_override
                0x0000000040226824       0x74 drivers/built-in.o
                0x0000000040226824                fuse_override
 .text.video_drawchars
                0x0000000040226898      0x42c drivers/built-in.o
 .text.video_invertchar
                0x0000000040226cc4       0x6c drivers/built-in.o
 .text.draw_bitmap
                0x0000000040226d30       0xdc drivers/built-in.o
 .text.console_cursor.part.0
                0x0000000040226e0c       0x20 drivers/built-in.o
 .text.console_newline.constprop.3
                0x0000000040226e2c       0xd8 drivers/built-in.o
 .text.board_cfb_skip
                0x0000000040226f04        0x8 drivers/built-in.o
                0x0000000040226f04                board_cfb_skip
 .text.console_cursor
                0x0000000040226f0c       0xa0 drivers/built-in.o
                0x0000000040226f0c                console_cursor
 .text.cfb_video_putc
                0x0000000040226fac      0x17c drivers/built-in.o
 .text.cfb_video_puts
                0x0000000040227128       0x98 drivers/built-in.o
 .text.video_set_lut
                0x00000000402271c0        0x4 drivers/built-in.o
                0x00000000402271c0                video_set_lut
 .text.display_rle8_bitmap
                0x00000000402271c4      0x358 drivers/built-in.o
 .text.plot_logo_or_black
                0x000000004022751c      0x294 drivers/built-in.o
 .text.do_clrlogo
                0x00000000402277b0       0x40 drivers/built-in.o
 .text.video_display_bitmap
                0x00000000402277f0      0x978 drivers/built-in.o
                0x00000000402277f0                video_display_bitmap
 .text.video_clear
                0x0000000040228168       0x4c drivers/built-in.o
                0x0000000040228168                video_clear
 .text.drv_video_init
                0x00000000402281b4      0x3d4 drivers/built-in.o
                0x00000000402281b4                drv_video_init
 .text.do_hdp   0x0000000040228588       0xb4 drivers/built-in.o
                0x0000000040228588                do_hdp
 .text.imx8_hdmi_enable
                0x000000004022863c      0x1b8 drivers/built-in.o
                0x000000004022863c                imx8_hdmi_enable
 .text.imx8_hdmi_disable
                0x00000000402287f4       0x64 drivers/built-in.o
                0x00000000402287f4                imx8_hdmi_disable
 .text.cdn_api_init
                0x0000000040228858       0x14 drivers/built-in.o
                0x0000000040228858                cdn_api_init
 .text.cdn_api_general_test_echo_ext
                0x000000004022886c      0x134 drivers/built-in.o
                0x000000004022886c                cdn_api_general_test_echo_ext
 .text.cdn_api_general_test_echo_ext_blocking
                0x00000000402289a0       0x50 drivers/built-in.o
                0x00000000402289a0                cdn_api_general_test_echo_ext_blocking
 .text.cdn_api_checkalive
                0x00000000402289f0       0x4c drivers/built-in.o
                0x00000000402289f0                cdn_api_checkalive
 .text.cdn_api_general_read_register
                0x0000000040228a3c       0xe0 drivers/built-in.o
                0x0000000040228a3c                cdn_api_general_read_register
 .text.cdn_api_general_read_register_blocking
                0x0000000040228b1c       0x38 drivers/built-in.o
                0x0000000040228b1c                cdn_api_general_read_register_blocking
 .text.cdn_api_general_write_register
                0x0000000040228b54       0xb0 drivers/built-in.o
                0x0000000040228b54                cdn_api_general_write_register
 .text.cdn_api_general_write_register_blocking
                0x0000000040228c04       0x38 drivers/built-in.o
                0x0000000040228c04                cdn_api_general_write_register_blocking
 .text.cdn_apb_read
                0x0000000040228c3c       0x18 drivers/built-in.o
                0x0000000040228c3c                cdn_apb_read
 .text.cdn_apb_write
                0x0000000040228c54       0x14 drivers/built-in.o
                0x0000000040228c54                cdn_apb_write
 .text.cdn_sapb_read
                0x0000000040228c68       0x18 drivers/built-in.o
                0x0000000040228c68                cdn_sapb_read
 .text.cdn_sapb_write
                0x0000000040228c80       0x14 drivers/built-in.o
                0x0000000040228c80                cdn_sapb_write
 .text.cdn_api_set_avi
                0x0000000040228c94      0x130 drivers/built-in.o
                0x0000000040228c94                cdn_api_set_avi
 .text.infoframeSet
                0x0000000040228dc4      0x114 drivers/built-in.o
 .text.cdn_api_infoframeset
                0x0000000040228ed8        0x8 drivers/built-in.o
                0x0000000040228ed8                cdn_api_infoframeset
 .text.cdn_bus_read
                0x0000000040228ee0       0x14 drivers/built-in.o
                0x0000000040228ee0                cdn_bus_read
 .text.cdn_bus_write
                0x0000000040228ef4       0x14 drivers/built-in.o
                0x0000000040228ef4                cdn_bus_write
 .text.internal_itobe
                0x0000000040228f08       0x24 drivers/built-in.o
                0x0000000040228f08                internal_itobe
 .text.internal_betoi
                0x0000000040228f2c       0x5c drivers/built-in.o
                0x0000000040228f2c                internal_betoi
 .text.internal_vmkmsg
                0x0000000040228f88      0x14c drivers/built-in.o
                0x0000000040228f88                internal_vmkmsg
 .text.internal_vreadmsg
                0x00000000402290d4      0x194 drivers/built-in.o
                0x00000000402290d4                internal_vreadmsg
 .text.internal_readmsg
                0x0000000040229268       0x54 drivers/built-in.o
                0x0000000040229268                internal_readmsg
 .text.mailbox_write
                0x00000000402292bc       0x6c drivers/built-in.o
                0x00000000402292bc                mailbox_write
 .text.mailbox_read
                0x0000000040229328       0x78 drivers/built-in.o
                0x0000000040229328                mailbox_read
 .text.internal_mbox_tx_process
                0x00000000402293a0       0xb0 drivers/built-in.o
                0x00000000402293a0                internal_mbox_tx_process
 .text.internal_mbox_rx_process
                0x0000000040229450       0x90 drivers/built-in.o
                0x0000000040229450                internal_mbox_rx_process
 .text.internal_apb_available
                0x00000000402294e0       0x14 drivers/built-in.o
                0x00000000402294e0                internal_apb_available
 .text.internal_mbox_tx_enable
                0x00000000402294f4       0x2c drivers/built-in.o
                0x00000000402294f4                internal_mbox_tx_enable
 .text.internal_vtx_mkfullmsg
                0x0000000040229520       0x70 drivers/built-in.o
                0x0000000040229520                internal_vtx_mkfullmsg
 .text.internal_tx_mkfullmsg
                0x0000000040229590       0x50 drivers/built-in.o
                0x0000000040229590                internal_tx_mkfullmsg
 .text.internal_test_rx_head
                0x00000000402295e0       0x34 drivers/built-in.o
                0x00000000402295e0                internal_test_rx_head
 .text.internal_test_rx_head_match
                0x0000000040229614       0x14 drivers/built-in.o
                0x0000000040229614                internal_test_rx_head_match
 .text.afe_write
                0x0000000040229628       0x54 drivers/built-in.o
                0x0000000040229628                afe_write
 .text.afe_read
                0x000000004022967c       0x48 drivers/built-in.o
                0x000000004022967c                afe_read
 .text.set_field_value
                0x00000000402296c4       0x40 drivers/built-in.o
                0x00000000402296c4                set_field_value
 .text.set_reg_value
                0x0000000040229704       0x14 drivers/built-in.o
                0x0000000040229704                set_reg_value
 .text.CDN_API_HDMITX_DDC_WRITE
                0x0000000040229718      0x120 drivers/built-in.o
                0x0000000040229718                CDN_API_HDMITX_DDC_WRITE
 .text.CDN_API_HDMITX_DDC_WRITE_blocking
                0x0000000040229838       0x38 drivers/built-in.o
                0x0000000040229838                CDN_API_HDMITX_DDC_WRITE_blocking
 .text.CDN_API_HDMITX_Set_Mode_blocking
                0x0000000040229870       0xf8 drivers/built-in.o
                0x0000000040229870                CDN_API_HDMITX_Set_Mode_blocking
 .text.CDN_API_HDMITX_Init_blocking
                0x0000000040229968       0x88 drivers/built-in.o
                0x0000000040229968                CDN_API_HDMITX_Init_blocking
 .text.CDN_API_HDMITX_SetVic_blocking
                0x00000000402299f0      0x1a8 drivers/built-in.o
                0x00000000402299f0                CDN_API_HDMITX_SetVic_blocking
 .text.aux_cfg_t28hpc
                0x0000000040229b98       0xc0 drivers/built-in.o
                0x0000000040229b98                aux_cfg_t28hpc
 .text.phy_cfg_t28hpc
                0x0000000040229c58     0x2b2c drivers/built-in.o
                0x0000000040229c58                phy_cfg_t28hpc
 .text.hdmi_tx_t28hpc_power_config_seq
                0x000000004022c784       0x88 drivers/built-in.o
                0x000000004022c784                hdmi_tx_t28hpc_power_config_seq
 .text.thermal_get_temp
                0x000000004022c80c       0x1c drivers/built-in.o
                0x000000004022c80c                thermal_get_temp
 .text.read_temperature
                0x000000004022c828       0x50 drivers/built-in.o
 .text.nxp_tmu_get_temp
                0x000000004022c878       0xd4 drivers/built-in.o
                0x000000004022c878                nxp_tmu_get_temp
 .text.nxp_tmu_ofdata_to_platdata
                0x000000004022c94c      0x1c8 drivers/built-in.o
 .text.nxp_tmu_bind
                0x000000004022cb14       0xe0 drivers/built-in.o
 .text.nxp_tmu_probe
                0x000000004022cbf4      0x1b4 drivers/built-in.o
 .text.gpio_to_device
                0x000000004022cda8       0x88 drivers/gpio/built-in.o
 .text.check_reserved
                0x000000004022ce30       0x78 drivers/gpio/built-in.o
 .text.gpio_renumber
                0x000000004022cea8       0x90 drivers/gpio/built-in.o
 .text.gpio_pre_remove
                0x000000004022cf38       0x5c drivers/gpio/built-in.o
 .text.gpio_post_probe
                0x000000004022cf94       0x48 drivers/gpio/built-in.o
 .text.dm_gpio_lookup_name
                0x000000004022cfdc      0x110 drivers/gpio/built-in.o
                0x000000004022cfdc                dm_gpio_lookup_name
 .text.gpio_lookup_name
                0x000000004022d0ec       0x7c drivers/gpio/built-in.o
                0x000000004022d0ec                gpio_lookup_name
 .text.gpio_xlate_offs_flags
                0x000000004022d168       0x3c drivers/gpio/built-in.o
                0x000000004022d168                gpio_xlate_offs_flags
 .text.dm_gpio_request
                0x000000004022d1a4       0xb8 drivers/gpio/built-in.o
                0x000000004022d1a4                dm_gpio_request
 .text.dm_gpio_requestf
                0x000000004022d25c       0x78 drivers/gpio/built-in.o
 .text.gpio_request
                0x000000004022d2d4       0x34 drivers/gpio/built-in.o
                0x000000004022d2d4                gpio_request
 .text._dm_gpio_free
                0x000000004022d308       0x84 drivers/gpio/built-in.o
                0x000000004022d308                _dm_gpio_free
 .text.gpio_free
                0x000000004022d38c       0x28 drivers/gpio/built-in.o
                0x000000004022d38c                gpio_free
 .text.gpio_direction_input
                0x000000004022d3b4       0x48 drivers/gpio/built-in.o
                0x000000004022d3b4                gpio_direction_input
 .text.gpio_direction_output
                0x000000004022d3fc       0x58 drivers/gpio/built-in.o
                0x000000004022d3fc                gpio_direction_output
 .text.dm_gpio_get_value
                0x000000004022d454       0x54 drivers/gpio/built-in.o
                0x000000004022d454                dm_gpio_get_value
 .text.dm_gpio_set_value
                0x000000004022d4a8       0x6c drivers/gpio/built-in.o
                0x000000004022d4a8                dm_gpio_set_value
 .text.dm_gpio_set_dir_flags
                0x000000004022d514       0xa8 drivers/gpio/built-in.o
                0x000000004022d514                dm_gpio_set_dir_flags
 .text._gpio_request_by_name_nodev
                0x000000004022d5bc      0x104 drivers/gpio/built-in.o
 .text.gpio_get_value
                0x000000004022d6c0       0x24 drivers/gpio/built-in.o
                0x000000004022d6c0                gpio_get_value
 .text.gpio_get_bank_info
                0x000000004022d6e4       0x2c drivers/gpio/built-in.o
                0x000000004022d6e4                gpio_get_bank_info
 .text.get_function
                0x000000004022d710       0xb4 drivers/gpio/built-in.o
                0x000000004022d710                get_function
 .text.gpio_get_function
                0x000000004022d7c4        0xc drivers/gpio/built-in.o
                0x000000004022d7c4                gpio_get_function
 .text.gpio_get_raw_function
                0x000000004022d7d0        0xc drivers/gpio/built-in.o
                0x000000004022d7d0                gpio_get_raw_function
 .text.gpio_get_status
                0x000000004022d7dc      0x130 drivers/gpio/built-in.o
                0x000000004022d7dc                gpio_get_status
 .text.gpio_request_by_name_nodev
                0x000000004022d90c        0xc drivers/gpio/built-in.o
                0x000000004022d90c                gpio_request_by_name_nodev
 .text.gpio_request_by_name
                0x000000004022d918       0x20 drivers/gpio/built-in.o
                0x000000004022d918                gpio_request_by_name
 .text.mxc_gpio_get_function
                0x000000004022d938       0x3c drivers/gpio/built-in.o
 .text.mxc_gpio_get_value
                0x000000004022d974       0x34 drivers/gpio/built-in.o
 .text.mxc_gpio_direction_input
                0x000000004022d9a8       0x44 drivers/gpio/built-in.o
 .text.mxc_gpio_probe
                0x000000004022d9ec       0x88 drivers/gpio/built-in.o
 .text.mxc_gpio_bind
                0x000000004022da74       0x70 drivers/gpio/built-in.o
 .text.mxc_gpio_direction_output
                0x000000004022dae4       0x6c drivers/gpio/built-in.o
 .text.mxc_gpio_set_value
                0x000000004022db50       0x54 drivers/gpio/built-in.o
 .text.i2c_setup_offset
                0x000000004022dba4       0x64 drivers/i2c/built-in.o
 .text.dm_i2c_read
                0x000000004022dc08      0x178 drivers/i2c/built-in.o
                0x000000004022dc08                dm_i2c_read
 .text.dm_i2c_write
                0x000000004022dd80      0x1f0 drivers/i2c/built-in.o
                0x000000004022dd80                dm_i2c_write
 .text.i2c_get_chip
                0x000000004022df70      0x100 drivers/i2c/built-in.o
                0x000000004022df70                i2c_get_chip
 .text.dm_i2c_probe
                0x000000004022e070       0xa4 drivers/i2c/built-in.o
                0x000000004022e070                dm_i2c_probe
 .text.dm_i2c_set_bus_speed
                0x000000004022e114       0x5c drivers/i2c/built-in.o
                0x000000004022e114                dm_i2c_set_bus_speed
 .text.i2c_post_probe
                0x000000004022e170       0x4c drivers/i2c/built-in.o
 .text.dm_i2c_get_bus_speed
                0x000000004022e1bc       0x44 drivers/i2c/built-in.o
                0x000000004022e1bc                dm_i2c_get_bus_speed
 .text.i2c_set_chip_flags
                0x000000004022e200       0x60 drivers/i2c/built-in.o
                0x000000004022e200                i2c_set_chip_flags
 .text.i2c_get_chip_flags
                0x000000004022e260       0x2c drivers/i2c/built-in.o
                0x000000004022e260                i2c_get_chip_flags
 .text.i2c_set_chip_offset_len
                0x000000004022e28c       0x38 drivers/i2c/built-in.o
                0x000000004022e28c                i2c_set_chip_offset_len
 .text.i2c_get_chip_offset_len
                0x000000004022e2c4       0x18 drivers/i2c/built-in.o
                0x000000004022e2c4                i2c_get_chip_offset_len
 .text.i2c_deblock
                0x000000004022e2dc       0x1c drivers/i2c/built-in.o
                0x000000004022e2dc                i2c_deblock
 .text.i2c_chip_ofdata_to_platdata
                0x000000004022e2f8       0x60 drivers/i2c/built-in.o
                0x000000004022e2f8                i2c_chip_ofdata_to_platdata
 .text.i2c_child_post_bind
                0x000000004022e358       0x44 drivers/i2c/built-in.o
 .text.wait_for_sr_state
                0x000000004022e39c      0x134 drivers/i2c/built-in.o
 .text.tx_byte  0x000000004022e4d0       0x64 drivers/i2c/built-in.o
 .text.i2c_imx_stop
                0x000000004022e534       0x6c drivers/i2c/built-in.o
 .text.mxc_i2c_set_bus_speed
                0x000000004022e5a0       0xec drivers/i2c/built-in.o
 .text.__i2c_force_reset_slave
                0x000000004022e68c        0x4 drivers/i2c/built-in.o
                0x000000004022e68c                __i2c_force_reset_slave
                0x000000004022e68c                i2c_force_reset_slave
 .text.i2c_idle_bus
                0x000000004022e690      0x164 drivers/i2c/built-in.o
                0x000000004022e690                i2c_idle_bus
 .text.mxc_i2c_probe
                0x000000004022e7f4      0x140 drivers/i2c/built-in.o
 .text.i2c_init_transfer.constprop.4
                0x000000004022e934      0x200 drivers/i2c/built-in.o
 .text.mxc_i2c_xfer
                0x000000004022eb34      0x260 drivers/i2c/built-in.o
 .text.mxc_i2c_probe_chip
                0x000000004022ed94       0x3c drivers/i2c/built-in.o
 .text.find_mmc_device
                0x000000004022edd0       0x5c drivers/mmc/built-in.o
                0x000000004022edd0                find_mmc_device
 .text.mmc_select_hwpartp
                0x000000004022ee2c       0x64 drivers/mmc/built-in.o
 .text.mmc_get_dev
                0x000000004022ee90       0x40 drivers/mmc/built-in.o
 .text.mmc_get_next_devnum
                0x000000004022eed0       0x14 drivers/mmc/built-in.o
                0x000000004022eed0                mmc_get_next_devnum
 .text.mmc_get_blk_desc
                0x000000004022eee4        0x8 drivers/mmc/built-in.o
                0x000000004022eee4                mmc_get_blk_desc
 .text.get_mmc_num
                0x000000004022eeec        0xc drivers/mmc/built-in.o
                0x000000004022eeec                get_mmc_num
 .text.mmc_do_preinit
                0x000000004022eef8       0x44 drivers/mmc/built-in.o
                0x000000004022eef8                mmc_do_preinit
 .text.mmc_list_init
                0x000000004022ef3c       0x1c drivers/mmc/built-in.o
                0x000000004022ef3c                mmc_list_init
 .text.mmc_list_add
                0x000000004022ef58       0x20 drivers/mmc/built-in.o
                0x000000004022ef58                mmc_list_add
 .text.print_mmc_devices
                0x000000004022ef78       0xd8 drivers/mmc/built-in.o
                0x000000004022ef78                print_mmc_devices
 .text.mmc_create
                0x000000004022f050       0xd0 drivers/mmc/built-in.o
                0x000000004022f050                mmc_create
 .text.esdhc_hs400_enhanced_strobe
                0x000000004022f120       0x20 drivers/mmc/built-in.o
 .text.fsl_esdhc_init
                0x000000004022f140      0x1f0 drivers/mmc/built-in.o
 .text.esdhc_execute_tuning
                0x000000004022f330      0x1a8 drivers/mmc/built-in.o
 .text.esdhc_getcd
                0x000000004022f4d8       0x68 drivers/mmc/built-in.o
 .text.esdhc_set_vdd
                0x000000004022f540        0xc drivers/mmc/built-in.o
 .text.esdhc_init
                0x000000004022f54c       0xd4 drivers/mmc/built-in.o
 .text.esdhc_set_ios
                0x000000004022f620      0x438 drivers/mmc/built-in.o
 .text.check_and_invalidate_dcache_range.isra.4
                0x000000004022fa58       0x54 drivers/mmc/built-in.o
 .text.esdhc_send_cmd
                0x000000004022faac      0x40c drivers/mmc/built-in.o
 .text.init_clk_usdhc
                0x000000004022feb8        0x4 drivers/mmc/built-in.o
                0x000000004022feb8                init_clk_usdhc
 .text.fsl_esdhc_probe
                0x000000004022febc      0x288 drivers/mmc/built-in.o
 .text.mmc_set_vdd
                0x0000000040230144       0x20 drivers/mmc/built-in.o
 .text.mmc_card_busy
                0x0000000040230164       0x1c drivers/mmc/built-in.o
 .text.mmc_set_ios
                0x0000000040230180       0x1c drivers/mmc/built-in.o
 .text.mmc_set_capacity
                0x000000004023019c       0xb0 drivers/mmc/built-in.o
 .text.mmc_select_mode
                0x000000004023024c       0x5c drivers/mmc/built-in.o
 .text.board_mmc_getwp
                0x00000000402302a8        0x8 drivers/mmc/built-in.o
                0x00000000402302a8                board_mmc_getwp
 .text.mmc_getwp
                0x00000000402302b0       0x48 drivers/mmc/built-in.o
                0x00000000402302b0                mmc_getwp
 .text.board_mmc_getcd
                0x00000000402302f8        0x8 drivers/mmc/built-in.o
                0x00000000402302f8                board_mmc_getcd
 .text.mmc_mode_name
                0x0000000040230300       0x24 drivers/mmc/built-in.o
                0x0000000040230300                mmc_mode_name
 .text.mmc_send_cmd
                0x0000000040230324       0x10 drivers/mmc/built-in.o
                0x0000000040230324                mmc_send_cmd
 .text.mmc_send_ext_csd
                0x0000000040230334       0x40 drivers/mmc/built-in.o
 .text.mmc_read_and_compare_ext_csd
                0x0000000040230374       0x90 drivers/mmc/built-in.o
 .text.mmc_go_idle
                0x0000000040230404       0x50 drivers/mmc/built-in.o
 .text.mmc_send_op_cond_iter
                0x0000000040230454       0x74 drivers/mmc/built-in.o
 .text.mmc_execute_tuning
                0x00000000402304c8       0x10 drivers/mmc/built-in.o
                0x00000000402304c8                mmc_execute_tuning
 .text.mmc_send_status
                0x00000000402304d8       0xd4 drivers/mmc/built-in.o
                0x00000000402304d8                mmc_send_status
 .text.mmc_set_blocklen
                0x00000000402305ac       0x5c drivers/mmc/built-in.o
                0x00000000402305ac                mmc_set_blocklen
 .text.mmc_send_tuning
                0x0000000040230608       0xbc drivers/mmc/built-in.o
                0x0000000040230608                mmc_send_tuning
 .text.mmc_bread
                0x00000000402306c4      0x17c drivers/mmc/built-in.o
                0x00000000402306c4                mmc_bread
 .text.mmc_switch
                0x0000000040230840       0x6c drivers/mmc/built-in.o
                0x0000000040230840                mmc_switch
 .text.mmc_set_card_speed
                0x00000000402308ac       0xb0 drivers/mmc/built-in.o
 .text.mmc_hwpart_config
                0x000000004023095c      0x3e8 drivers/mmc/built-in.o
                0x000000004023095c                mmc_hwpart_config
 .text.mmc_getcd
                0x0000000040230d44       0x48 drivers/mmc/built-in.o
                0x0000000040230d44                mmc_getcd
 .text.sd_select_bus_width
                0x0000000040230d8c       0xa4 drivers/mmc/built-in.o
                0x0000000040230d8c                sd_select_bus_width
 .text.mmc_set_clock
                0x0000000040230e30       0x28 drivers/mmc/built-in.o
                0x0000000040230e30                mmc_set_clock
 .text.mmc_select_mode_and_width
                0x0000000040230e58      0x410 drivers/mmc/built-in.o
 .text.mmc_switch_part
                0x0000000040231268       0xc4 drivers/mmc/built-in.o
                0x0000000040231268                mmc_switch_part
 .text.board_mmc_power_init
                0x000000004023132c        0x4 drivers/mmc/built-in.o
                0x000000004023132c                board_mmc_power_init
 .text.mmc_start_init
                0x0000000040231330      0x3ec drivers/mmc/built-in.o
                0x0000000040231330                mmc_start_init
 .text.mmc_init
                0x000000004023171c      0xe50 drivers/mmc/built-in.o
                0x000000004023171c                mmc_init
 .text.mmc_set_dsr
                0x000000004023256c       0x10 drivers/mmc/built-in.o
                0x000000004023256c                mmc_set_dsr
 .text.mmc_initialize
                0x000000004023257c       0xdc drivers/mmc/built-in.o
                0x000000004023257c                mmc_initialize
 .text.mmc_boot_partition_size_change
                0x0000000040232658       0xc0 drivers/mmc/built-in.o
                0x0000000040232658                mmc_boot_partition_size_change
 .text.mmc_set_boot_bus_width
                0x0000000040232718       0x20 drivers/mmc/built-in.o
                0x0000000040232718                mmc_set_boot_bus_width
 .text.mmc_set_part_conf
                0x0000000040232738       0x20 drivers/mmc/built-in.o
                0x0000000040232738                mmc_set_part_conf
 .text.mmc_set_rst_n_function
                0x0000000040232758       0x10 drivers/mmc/built-in.o
                0x0000000040232758                mmc_set_rst_n_function
 .text.mmc_berase
                0x0000000040232768      0x1d0 drivers/mmc/built-in.o
                0x0000000040232768                mmc_berase
 .text.mmc_bwrite
                0x0000000040232938      0x1a0 drivers/mmc/built-in.o
                0x0000000040232938                mmc_bwrite
 .text.mtd_arg_off
                0x0000000040232ad8       0x7c drivers/mtd/built-in.o
                0x0000000040232ad8                mtd_arg_off
 .text.mtd_arg_off_size
                0x0000000040232b54      0x114 drivers/mtd/built-in.o
                0x0000000040232b54                mtd_arg_off_size
 .text.spi_flash_probe
                0x0000000040232c68       0x88 drivers/mtd/spi/built-in.o
                0x0000000040232c68                spi_flash_probe
 .text.spi_flash_free
                0x0000000040232cf0       0x28 drivers/mtd/spi/built-in.o
                0x0000000040232cf0                spi_flash_free
 .text.stm_is_locked_sr
                0x0000000040232d18       0x54 drivers/mtd/spi/built-in.o
 .text.spi_flash_read_common
                0x0000000040232d6c       0x78 drivers/mtd/spi/built-in.o
                0x0000000040232d6c                spi_flash_read_common
 .text.read_sr  0x0000000040232de4       0x38 drivers/mtd/spi/built-in.o
 .text.stm_is_locked
                0x0000000040232e1c       0x4c drivers/mtd/spi/built-in.o
                0x0000000040232e1c                stm_is_locked
 .text.spi_flash_write_common
                0x0000000040232e68      0x148 drivers/mtd/spi/built-in.o
                0x0000000040232e68                spi_flash_write_common
 .text.write_bar
                0x0000000040232fb0       0x68 drivers/mtd/spi/built-in.o
 .text.spi_flash_cmd_erase_ops
                0x0000000040233018       0xe4 drivers/mtd/spi/built-in.o
                0x0000000040233018                spi_flash_cmd_erase_ops
 .text.spi_flash_cmd_write_ops
                0x00000000402330fc      0x110 drivers/mtd/spi/built-in.o
                0x00000000402330fc                spi_flash_cmd_write_ops
 .text.write_sr
                0x000000004023320c       0x38 drivers/mtd/spi/built-in.o
 .text.stm_lock
                0x0000000040233244      0x19c drivers/mtd/spi/built-in.o
                0x0000000040233244                stm_lock
 .text.stm_unlock
                0x00000000402333e0      0x218 drivers/mtd/spi/built-in.o
                0x00000000402333e0                stm_unlock
 .text.spi_flash_copy_mmap
                0x00000000402335f8        0x4 drivers/mtd/spi/built-in.o
                0x00000000402335f8                spi_flash_copy_mmap
 .text.spi_flash_cmd_read_ops
                0x00000000402335fc      0x174 drivers/mtd/spi/built-in.o
                0x00000000402335fc                spi_flash_cmd_read_ops
 .text.spi_flash_scan
                0x0000000040233770      0x370 drivers/mtd/spi/built-in.o
                0x0000000040233770                spi_flash_scan
 .text.spi_flash_read_write
                0x0000000040233ae0       0x7c drivers/mtd/spi/built-in.o
 .text.spi_flash_cmd_read
                0x0000000040233b5c       0x10 drivers/mtd/spi/built-in.o
                0x0000000040233b5c                spi_flash_cmd_read
 .text.spi_flash_cmd
                0x0000000040233b6c       0x2c drivers/mtd/spi/built-in.o
                0x0000000040233b6c                spi_flash_cmd
 .text.spi_flash_cmd_write
                0x0000000040233b98        0xc drivers/mtd/spi/built-in.o
                0x0000000040233b98                spi_flash_cmd_write
 .text.fec_reg_setup
                0x0000000040233ba4       0x68 drivers/net/built-in.o
 .text.fecmxc_free_pkt
                0x0000000040233c0c       0x28 drivers/net/built-in.o
 .text.fec_free_descs
                0x0000000040233c34       0x48 drivers/net/built-in.o
 .text.fec_phy_write
                0x0000000040233c7c       0x8c drivers/net/built-in.o
 .text.fec_phy_read
                0x0000000040233d08       0x98 drivers/net/built-in.o
 .text.fec_mii_setspeed
                0x0000000040233da0       0x60 drivers/net/built-in.o
 .text.fecmxc_set_hwaddr
                0x0000000040233e00       0xb0 drivers/net/built-in.o
 .text.fecmxc_read_rom_hwaddr
                0x0000000040233eb0       0x84 drivers/net/built-in.o
 .text.fecmxc_halt
                0x0000000040233f34       0x88 drivers/net/built-in.o
 .text.fecmxc_ofdata_to_platdata
                0x0000000040233fbc       0x84 drivers/net/built-in.o
 .text.fecmxc_remove
                0x0000000040234040       0x44 drivers/net/built-in.o
 .text.fecmxc_send
                0x0000000040234084      0x160 drivers/net/built-in.o
 .text.fecmxc_init
                0x00000000402341e4      0x324 drivers/net/built-in.o
 .text.fecmxc_recv
                0x0000000040234508      0x260 drivers/net/built-in.o
 .text.fec_get_miibus
                0x0000000040234768       0xb8 drivers/net/built-in.o
                0x0000000040234768                fec_get_miibus
 .text.init_clk_fec
                0x0000000040234820        0x4 drivers/net/built-in.o
                0x0000000040234820                init_clk_fec
 .text.fecmxc_probe
                0x0000000040234824      0x230 drivers/net/built-in.o
 .text.genphy_shutdown
                0x0000000040234a54        0x8 drivers/net/phy/built-in.o
                0x0000000040234a54                genphy_shutdown
 .text.genphy_restart_aneg
                0x0000000040234a5c       0x64 drivers/net/phy/built-in.o
                0x0000000040234a5c                genphy_restart_aneg
 .text.genphy_config_aneg
                0x0000000040234ac0      0x1ec drivers/net/phy/built-in.o
                0x0000000040234ac0                genphy_config_aneg
 .text.genphy_config
                0x0000000040234cac       0xcc drivers/net/phy/built-in.o
                0x0000000040234cac                genphy_config
 .text.genphy_update_link
                0x0000000040234d78      0x150 drivers/net/phy/built-in.o
                0x0000000040234d78                genphy_update_link
 .text.genphy_parse_link
                0x0000000040234ec8      0x1b4 drivers/net/phy/built-in.o
                0x0000000040234ec8                genphy_parse_link
 .text.genphy_startup
                0x000000004023507c       0x34 drivers/net/phy/built-in.o
                0x000000004023507c                genphy_startup
 .text.phy_init
                0x00000000402350b0       0x18 drivers/net/phy/built-in.o
                0x00000000402350b0                phy_init
 .text.phy_register
                0x00000000402350c8       0x24 drivers/net/phy/built-in.o
                0x00000000402350c8                phy_register
 .text.get_phy_id
                0x00000000402350ec       0x80 drivers/net/phy/built-in.o
                0x00000000402350ec                get_phy_id
 .text.get_phy_device_by_mask
                0x000000004023516c      0x2d0 drivers/net/phy/built-in.o
 .text.phy_reset
                0x000000004023543c       0xc8 drivers/net/phy/built-in.o
                0x000000004023543c                phy_reset
 .text.phy_find_by_mask
                0x0000000040235504       0x4c drivers/net/phy/built-in.o
                0x0000000040235504                phy_find_by_mask
 .text.phy_connect_dev
                0x0000000040235550       0x58 drivers/net/phy/built-in.o
                0x0000000040235550                phy_connect_dev
 .text.phy_startup
                0x00000000402355a8       0x18 drivers/net/phy/built-in.o
                0x00000000402355a8                phy_startup
 .text.phy_config
                0x00000000402355c0        0x4 drivers/net/phy/built-in.o
                0x00000000402355c0                phy_config
 .text.phy_get_interface_by_name
                0x00000000402355c4       0x58 drivers/net/phy/built-in.o
                0x00000000402355c4                phy_get_interface_by_name
 .text.phy_write.constprop.0
                0x000000004023561c       0x1c drivers/net/phy/built-in.o
 .text.ar8031_config
                0x0000000040235638       0x98 drivers/net/phy/built-in.o
 .text.ar8021_config
                0x00000000402356d0       0x48 drivers/net/phy/built-in.o
 .text.ar8035_config
                0x0000000040235718      0x128 drivers/net/phy/built-in.o
 .text.phy_atheros_init
                0x0000000040235840       0x38 drivers/net/phy/built-in.o
                0x0000000040235840                phy_atheros_init
 .text.pmic_bind_children
                0x0000000040235878      0x100 drivers/power/pmic/built-in.o
                0x0000000040235878                pmic_bind_children
 .text.pmic_get
                0x0000000040235978       0x10 drivers/power/pmic/built-in.o
                0x0000000040235978                pmic_get
 .text.pmic_reg_count
                0x0000000040235988       0x40 drivers/power/pmic/built-in.o
                0x0000000040235988                pmic_reg_count
 .text.pmic_read
                0x00000000402359c8       0x70 drivers/power/pmic/built-in.o
                0x00000000402359c8                pmic_read
 .text.pmic_write
                0x0000000040235a38       0x70 drivers/power/pmic/built-in.o
                0x0000000040235a38                pmic_write
 .text.pmic_reg_read
                0x0000000040235aa8       0x24 drivers/power/pmic/built-in.o
                0x0000000040235aa8                pmic_reg_read
 .text.pmic_reg_write
                0x0000000040235acc       0x24 drivers/power/pmic/built-in.o
                0x0000000040235acc                pmic_reg_write
 .text.pmic_clrsetbits
                0x0000000040235af0       0x5c drivers/power/pmic/built-in.o
                0x0000000040235af0                pmic_clrsetbits
 .text.pfuze100_reg_count
                0x0000000040235b4c        0x8 drivers/power/pmic/built-in.o
 .text.pfuze100_bind
                0x0000000040235b54       0x58 drivers/power/pmic/built-in.o
 .text.pfuze100_write
                0x0000000040235bac       0x54 drivers/power/pmic/built-in.o
 .text.pfuze100_read
                0x0000000040235c00       0x54 drivers/power/pmic/built-in.o
 .text.regulator_pre_probe
                0x0000000040235c54      0x13c drivers/power/regulator/built-in.o
 .text.regulator_post_bind
                0x0000000040235d90       0xf0 drivers/power/regulator/built-in.o
 .text.regulator_mode
                0x0000000040235e80       0x3c drivers/power/regulator/built-in.o
                0x0000000040235e80                regulator_mode
 .text.regulator_get_value
                0x0000000040235ebc       0x40 drivers/power/regulator/built-in.o
                0x0000000040235ebc                regulator_get_value
 .text.regulator_set_value
                0x0000000040235efc       0x90 drivers/power/regulator/built-in.o
                0x0000000040235efc                regulator_set_value
 .text.regulator_set_value_force
                0x0000000040235f8c       0x48 drivers/power/regulator/built-in.o
                0x0000000040235f8c                regulator_set_value_force
 .text.regulator_get_current
                0x0000000040235fd4       0x40 drivers/power/regulator/built-in.o
                0x0000000040235fd4                regulator_get_current
 .text.regulator_set_current
                0x0000000040236014       0x90 drivers/power/regulator/built-in.o
                0x0000000040236014                regulator_set_current
 .text.regulator_get_enable
                0x00000000402360a4       0x40 drivers/power/regulator/built-in.o
                0x00000000402360a4                regulator_get_enable
 .text.regulator_set_enable
                0x00000000402360e4       0x48 drivers/power/regulator/built-in.o
                0x00000000402360e4                regulator_set_enable
 .text.regulator_get_mode
                0x000000004023612c       0x40 drivers/power/regulator/built-in.o
                0x000000004023612c                regulator_get_mode
 .text.regulator_set_mode
                0x000000004023616c       0x48 drivers/power/regulator/built-in.o
                0x000000004023616c                regulator_set_mode
 .text.regulator_get_by_platname
                0x00000000402361b4       0x7c drivers/power/regulator/built-in.o
                0x00000000402361b4                regulator_get_by_platname
 .text.device_get_supply_regulator
                0x0000000040236230       0x14 drivers/power/regulator/built-in.o
                0x0000000040236230                device_get_supply_regulator
 .text.pfuze100_regulator_mode
                0x0000000040236244      0x11c drivers/power/regulator/built-in.o
 .text.pfuze100_regulator_set_mode
                0x0000000040236360       0x20 drivers/power/regulator/built-in.o
 .text.pfuze100_regulator_get_mode
                0x0000000040236380       0x24 drivers/power/regulator/built-in.o
 .text.pfuze100_regulator_get_value
                0x00000000402363a4       0xac drivers/power/regulator/built-in.o
 .text.pfuze100_regulator_set_value
                0x0000000040236450       0xb4 drivers/power/regulator/built-in.o
 .text.pfuze100_regulator_set_enable
                0x0000000040236504       0xd4 drivers/power/regulator/built-in.o
 .text.pfuze100_regulator_probe
                0x00000000402365d8      0x14c drivers/power/regulator/built-in.o
 .text.pfuze100_regulator_get_enable
                0x0000000040236724       0x78 drivers/power/regulator/built-in.o
 .text.fixed_regulator_set_enable
                0x000000004023679c       0xa8 drivers/power/regulator/built-in.o
 .text.fixed_regulator_get_enable
                0x0000000040236844       0x30 drivers/power/regulator/built-in.o
 .text.fixed_regulator_get_current
                0x0000000040236874       0x30 drivers/power/regulator/built-in.o
 .text.fixed_regulator_get_value
                0x00000000402368a4       0x30 drivers/power/regulator/built-in.o
 .text.fixed_regulator_ofdata_to_platdata
                0x00000000402368d4       0xd4 drivers/power/regulator/built-in.o
 .text.gpio_regulator_set_value
                0x00000000402369a8       0xac drivers/power/regulator/built-in.o
 .text.gpio_regulator_get_value
                0x0000000040236a54       0x70 drivers/power/regulator/built-in.o
 .text.gpio_regulator_ofdata_to_platdata
                0x0000000040236ac4       0xcc drivers/power/regulator/built-in.o
 .text.serial_stub_start
                0x0000000040236b90        0xc drivers/serial/built-in.o
 .text.serial_stub_stop
                0x0000000040236b9c        0xc drivers/serial/built-in.o
 .text.serial_stub_putc
                0x0000000040236ba8       0x10 drivers/serial/built-in.o
 .text.serial_stub_puts
                0x0000000040236bb8       0x10 drivers/serial/built-in.o
 .text.serial_stub_getc
                0x0000000040236bc8        0xc drivers/serial/built-in.o
                0x0000000040236bc8                serial_stub_getc
 .text.serial_stub_tstc
                0x0000000040236bd4        0xc drivers/serial/built-in.o
                0x0000000040236bd4                serial_stub_tstc
 .text.get_current
                0x0000000040236be0       0x3c drivers/serial/built-in.o
 .text.serial_null
                0x0000000040236c1c        0x4 drivers/serial/built-in.o
                0x0000000040236c1c                jz_serial_initialize
                0x0000000040236c1c                bfin_serial_initialize
                0x0000000040236c1c                p3mx_serial_initialize
                0x0000000040236c1c                leon2_serial_initialize
                0x0000000040236c1c                leon3_serial_initialize
                0x0000000040236c1c                stm32_serial_initialize
                0x0000000040236c1c                amirix_serial_initialize
                0x0000000040236c1c                marvell_serial_initialize
                0x0000000040236c1c                cpci750_serial_initialize
                0x0000000040236c1c                ns16550_serial_initialize
                0x0000000040236c1c                asc_serial_initialize
                0x0000000040236c1c                sh_serial_initialize
                0x0000000040236c1c                oc_serial_initialize
                0x0000000040236c1c                mxs_auart_initialize
                0x0000000040236c1c                arm_dcc_initialize
                0x0000000040236c1c                bmw_serial_initialize
                0x0000000040236c1c                arc_serial_initialize
                0x0000000040236c1c                mcf_serial_initialize
                0x0000000040236c1c                lh7a40x_serial_initialize
                0x0000000040236c1c                evb64260_serial_initialize
                0x0000000040236c1c                lpc32xx_serial_initialize
                0x0000000040236c1c                max3100_serial_initialize
                0x0000000040236c1c                mpc85xx_serial_initialize
                0x0000000040236c1c                imx_serial_initialize
                0x0000000040236c1c                bfin_jtag_initialize
                0x0000000040236c1c                cogent_serial_initialize
                0x0000000040236c1c                clps7111_serial_initialize
                0x0000000040236c1c                ml2_serial_initialize
                0x0000000040236c1c                sandbox_serial_initialize
                0x0000000040236c1c                s3c24xx_serial_initialize
                0x0000000040236c1c                sconsole_serial_initialize
                0x0000000040236c1c                uartlite_serial_initialize
                0x0000000040236c1c                au1x00_serial_initialize
                0x0000000040236c1c                pxa_serial_initialize
                0x0000000040236c1c                atmel_serial_initialize
                0x0000000040236c1c                pl01x_serial_initialize
                0x0000000040236c1c                mpc512x_serial_initialize
                0x0000000040236c1c                s5p_serial_initialize
                0x0000000040236c1c                zynq_serial_initialize
                0x0000000040236c1c                sa1100_serial_initialize
                0x0000000040236c1c                mpc8260_scc_serial_initialize
                0x0000000040236c1c                iop480_serial_initialize
                0x0000000040236c1c                mpc8xx_serial_initialize
                0x0000000040236c1c                mpc8260_smc_serial_initialize
                0x0000000040236c1c                mpc5xx_serial_initialize
 .text.serial_register
                0x0000000040236c20       0x14 drivers/serial/built-in.o
                0x0000000040236c20                serial_register
 .text.serial_stdio_init
                0x0000000040236c34       0xb0 drivers/serial/built-in.o
                0x0000000040236c34                serial_stdio_init
 .text.serial_assign
                0x0000000040236ce4       0x50 drivers/serial/built-in.o
                0x0000000040236ce4                serial_assign
 .text.serial_initialize
                0x0000000040236d34       0xcc drivers/serial/built-in.o
                0x0000000040236d34                serial_initialize
 .text.serial_init
                0x0000000040236e00       0x24 drivers/serial/built-in.o
                0x0000000040236e00                serial_init
 .text.serial_setbrg
                0x0000000040236e24       0x18 drivers/serial/built-in.o
                0x0000000040236e24                serial_setbrg
 .text.on_baudrate
                0x0000000040236e3c      0x110 drivers/serial/built-in.o
 .text.serial_getc
                0x0000000040236f4c       0x18 drivers/serial/built-in.o
                0x0000000040236f4c                serial_getc
 .text.serial_tstc
                0x0000000040236f64       0x18 drivers/serial/built-in.o
                0x0000000040236f64                serial_tstc
 .text.serial_putc
                0x0000000040236f7c       0x28 drivers/serial/built-in.o
                0x0000000040236f7c                serial_putc
 .text.serial_puts
                0x0000000040236fa4       0x28 drivers/serial/built-in.o
                0x0000000040236fa4                serial_puts
 .text.default_serial_puts
                0x0000000040236fcc       0x3c drivers/serial/built-in.o
                0x0000000040236fcc                default_serial_puts
 .text.mxc_serial_getc
                0x0000000040237008       0x20 drivers/serial/built-in.o
 .text.mxc_serial_tstc
                0x0000000040237028       0x18 drivers/serial/built-in.o
 .text.mxc_serial_putc
                0x0000000040237040       0x48 drivers/serial/built-in.o
 .text.mxc_serial_setbrg
                0x0000000040237088       0x5c drivers/serial/built-in.o
 .text.mxc_serial_init
                0x00000000402370e4       0x80 drivers/serial/built-in.o
 .text.mxc_serial_initialize
                0x0000000040237164        0xc drivers/serial/built-in.o
                0x0000000040237164                mxc_serial_initialize
 .text.default_serial_console
                0x0000000040237170        0xc drivers/serial/built-in.o
                0x0000000040237170                default_serial_console
 .text.spi_do_alloc_slave
                0x000000004023717c       0x70 drivers/spi/built-in.o
                0x000000004023717c                spi_do_alloc_slave
 .text.qspi_read32
                0x00000000402371ec       0x14 drivers/spi/built-in.o
 .text.qspi_write32
                0x0000000040237200       0x14 drivers/spi/built-in.o
 .text.qspi_op_read
                0x0000000040237214      0x194 drivers/spi/built-in.o
 .text.qspi_xfer
                0x00000000402373a8      0x724 drivers/spi/built-in.o
                0x00000000402373a8                qspi_xfer
 .text.qspi_module_disable
                0x0000000040237acc       0x3c drivers/spi/built-in.o
                0x0000000040237acc                qspi_module_disable
 .text.qspi_cfg_smpr
                0x0000000040237b08       0x3c drivers/spi/built-in.o
                0x0000000040237b08                qspi_cfg_smpr
 .text.spi_setup_slave
                0x0000000040237b44      0x448 drivers/spi/built-in.o
                0x0000000040237b44                spi_setup_slave
 .text.spi_free_slave
                0x0000000040237f8c        0x4 drivers/spi/built-in.o
                0x0000000040237f8c                spi_free_slave
 .text.spi_claim_bus
                0x0000000040237f90        0x8 drivers/spi/built-in.o
                0x0000000040237f90                spi_claim_bus
 .text.spi_release_bus
                0x0000000040237f98        0x4 drivers/spi/built-in.o
                0x0000000040237f98                spi_release_bus
 .text.spi_xfer
                0x0000000040237f9c        0x8 drivers/spi/built-in.o
                0x0000000040237f9c                spi_xfer
 .text.dwc3_event_buffers_cleanup
                0x0000000040237fa4       0x70 drivers/usb/dwc3/built-in.o
 .text.dwc3_free_event_buffers
                0x0000000040238014       0x48 drivers/usb/dwc3/built-in.o
 .text.dwc3_free_scratch_buffers
                0x000000004023805c       0x1c drivers/usb/dwc3/built-in.o
 .text.dwc3_set_suspend_clk
                0x0000000040238078       0x28 drivers/usb/dwc3/built-in.o
                0x0000000040238078                dwc3_set_suspend_clk
 .text.dwc3_uboot_init
                0x00000000402380a0      0x814 drivers/usb/dwc3/built-in.o
                0x00000000402380a0                dwc3_uboot_init
 .text.dwc3_uboot_exit
                0x00000000402388b4       0xa8 drivers/usb/dwc3/built-in.o
                0x00000000402388b4                dwc3_uboot_exit
 .text.dwc3_uboot_handle_interrupt
                0x000000004023895c       0x40 drivers/usb/dwc3/built-in.o
                0x000000004023895c                dwc3_uboot_handle_interrupt
 .text.dwc3_gadget_ep0_enable
                0x000000004023899c        0x8 drivers/usb/dwc3/built-in.o
 .text.dwc3_gadget_ep0_disable
                0x00000000402389a4        0x8 drivers/usb/dwc3/built-in.o
 .text.dwc3_gadget_get_frame
                0x00000000402389ac       0x14 drivers/usb/dwc3/built-in.o
 .text.dwc3_gadget_set_selfpowered
                0x00000000402389c0       0x1c drivers/usb/dwc3/built-in.o
 .text.dwc3_suspend_gadget
                0x00000000402389dc       0x1c drivers/usb/dwc3/built-in.o
 .text.dwc3_gadget_ep_alloc_request
                0x00000000402389f8       0x38 drivers/usb/dwc3/built-in.o
 .text.dwc3_gadget_init_hw_endpoints
                0x0000000040238a30      0x18c drivers/usb/dwc3/built-in.o
 .text.dwc3_gadget_ep_free_request
                0x0000000040238bbc        0x8 drivers/usb/dwc3/built-in.o
 .text.dwc3_gadget_free_endpoints
                0x0000000040238bc4       0x6c drivers/usb/dwc3/built-in.o
 .text.dwc3_gadget_disconnect_interrupt
                0x0000000040238c30       0x80 drivers/usb/dwc3/built-in.o
 .text.dwc3_gadget_pullup
                0x0000000040238cb0      0x110 drivers/usb/dwc3/built-in.o
 .text.dwc3_prepare_trbs
                0x0000000040238dc0      0x2bc drivers/usb/dwc3/built-in.o
 .text.dwc3_gadget_set_test_mode
                0x000000004023907c       0x3c drivers/usb/dwc3/built-in.o
                0x000000004023907c                dwc3_gadget_set_test_mode
 .text.dwc3_gadget_set_link_state
                0x00000000402390b8       0xdc drivers/usb/dwc3/built-in.o
                0x00000000402390b8                dwc3_gadget_set_link_state
 .text.dwc3_gadget_wakeup
                0x0000000040239194       0xe4 drivers/usb/dwc3/built-in.o
 .text.dwc3_gadget_resize_tx_fifos
                0x0000000040239278       0xac drivers/usb/dwc3/built-in.o
                0x0000000040239278                dwc3_gadget_resize_tx_fifos
 .text.dwc3_gadget_giveback
                0x0000000040239324       0xec drivers/usb/dwc3/built-in.o
                0x0000000040239324                dwc3_gadget_giveback
 .text.dwc3_send_gadget_generic_command
                0x0000000040239410       0x6c drivers/usb/dwc3/built-in.o
                0x0000000040239410                dwc3_send_gadget_generic_command
 .text.dwc3_send_gadget_ep_cmd
                0x000000004023947c       0xac drivers/usb/dwc3/built-in.o
                0x000000004023947c                dwc3_send_gadget_ep_cmd
 .text.__dwc3_gadget_kick_transfer
                0x0000000040239528      0x170 drivers/usb/dwc3/built-in.o
 .text.dwc3_stop_active_transfer.constprop.19
                0x0000000040239698       0x74 drivers/usb/dwc3/built-in.o
 .text.dwc3_gadget_ep_queue
                0x000000004023970c      0x158 drivers/usb/dwc3/built-in.o
 .text.dwc3_endpoint_transfer_complete
                0x0000000040239864      0x200 drivers/usb/dwc3/built-in.o
 .text.dwc3_gadget_ep_dequeue
                0x0000000040239a64       0xc4 drivers/usb/dwc3/built-in.o
 .text.dwc3_remove_requests
                0x0000000040239b28       0x78 drivers/usb/dwc3/built-in.o
 .text.dwc3_gadget_reset_interrupt
                0x0000000040239ba0      0x120 drivers/usb/dwc3/built-in.o
 .text.__dwc3_gadget_ep_enable.constprop.20
                0x0000000040239cc0      0x2ec drivers/usb/dwc3/built-in.o
 .text.dwc3_gadget_ep_enable
                0x0000000040239fac       0xe4 drivers/usb/dwc3/built-in.o
 .text.__dwc3_gadget_ep_set_halt
                0x000000004023a090      0x124 drivers/usb/dwc3/built-in.o
                0x000000004023a090                __dwc3_gadget_ep_set_halt
 .text.__dwc3_gadget_ep_disable
                0x000000004023a1b4       0x8c drivers/usb/dwc3/built-in.o
 .text.dwc3_gadget_stop
                0x000000004023a240       0x40 drivers/usb/dwc3/built-in.o
 .text.dwc3_gadget_start
                0x000000004023a280      0x178 drivers/usb/dwc3/built-in.o
 .text.dwc3_gadget_ep_disable
                0x000000004023a3f8       0x70 drivers/usb/dwc3/built-in.o
 .text.dwc3_gadget_ep_set_wedge
                0x000000004023a468       0x2c drivers/usb/dwc3/built-in.o
 .text.dwc3_gadget_ep_set_halt
                0x000000004023a494        0x8 drivers/usb/dwc3/built-in.o
 .text.dwc3_gadget_init
                0x000000004023a49c      0x174 drivers/usb/dwc3/built-in.o
                0x000000004023a49c                dwc3_gadget_init
 .text.dwc3_gadget_exit
                0x000000004023a610       0x48 drivers/usb/dwc3/built-in.o
                0x000000004023a610                dwc3_gadget_exit
 .text.dwc3_gadget_uboot_handle_interrupt
                0x000000004023a658      0x5b4 drivers/usb/dwc3/built-in.o
                0x000000004023a658                dwc3_gadget_uboot_handle_interrupt
 .text.dwc3_ep0_status_cmpl
                0x000000004023ac0c        0x4 drivers/usb/dwc3/built-in.o
 .text.dwc3_ep0_delegate_req
                0x000000004023ac10       0x10 drivers/usb/dwc3/built-in.o
 .text.dwc3_ep0_start_trans
                0x000000004023ac20      0x194 drivers/usb/dwc3/built-in.o
 .text.__dwc3_ep0_do_control_data
                0x000000004023adb4      0x154 drivers/usb/dwc3/built-in.o
 .text.dwc3_ep0_handle_feature
                0x000000004023af08      0x164 drivers/usb/dwc3/built-in.o
 .text.__dwc3_ep0_do_control_status
                0x000000004023b06c       0x88 drivers/usb/dwc3/built-in.o
 .text.__dwc3_gadget_ep0_queue
                0x000000004023b0f4      0x108 drivers/usb/dwc3/built-in.o
 .text.dwc3_ep0_set_sel_cmpl
                0x000000004023b1fc       0xa0 drivers/usb/dwc3/built-in.o
 .text.dwc3_gadget_ep0_queue
                0x000000004023b29c       0x2c drivers/usb/dwc3/built-in.o
                0x000000004023b29c                dwc3_gadget_ep0_queue
 .text.dwc3_ep0_out_start
                0x000000004023b2c8       0x48 drivers/usb/dwc3/built-in.o
                0x000000004023b2c8                dwc3_ep0_out_start
 .text.dwc3_ep0_stall_and_restart
                0x000000004023b310       0x80 drivers/usb/dwc3/built-in.o
 .text.__dwc3_gadget_ep0_set_halt
                0x000000004023b390       0x1c drivers/usb/dwc3/built-in.o
                0x000000004023b390                __dwc3_gadget_ep0_set_halt
 .text.dwc3_gadget_ep0_set_halt
                0x000000004023b3ac       0x1c drivers/usb/dwc3/built-in.o
                0x000000004023b3ac                dwc3_gadget_ep0_set_halt
 .text.dwc3_ep0_interrupt
                0x000000004023b3c8      0x6ac drivers/usb/dwc3/built-in.o
                0x000000004023b3c8                dwc3_ep0_interrupt
 .text.ep_matches.part.0
                0x000000004023ba74      0x1f8 drivers/usb/gadget/built-in.o
 .text.usb_ep_autoconfig
                0x000000004023bc6c      0x124 drivers/usb/gadget/built-in.o
                0x000000004023bc6c                usb_ep_autoconfig
 .text.usb_ep_autoconfig_reset
                0x000000004023bd90       0x30 drivers/usb/gadget/built-in.o
                0x000000004023bd90                usb_ep_autoconfig_reset
 .text.usb_descriptor_fillbuf
                0x000000004023bdc0       0x84 drivers/usb/gadget/built-in.o
                0x000000004023bdc0                usb_descriptor_fillbuf
 .text.usb_gadget_get_string
                0x000000004023be44      0x194 drivers/usb/gadget/built-in.o
                0x000000004023be44                usb_gadget_get_string
 .text.count_configs
                0x000000004023bfd8       0x68 drivers/usb/gadget/built-in.o
 .text.collect_langs
                0x000000004023c040       0x44 drivers/usb/gadget/built-in.o
 .text.composite_setup_complete
                0x000000004023c084        0x4 drivers/usb/gadget/built-in.o
 .text.composite_suspend
                0x000000004023c088       0x80 drivers/usb/gadget/built-in.o
 .text.composite_resume
                0x000000004023c108       0x7c drivers/usb/gadget/built-in.o
 .text.g_dnl_unbind
                0x000000004023c184       0x34 drivers/usb/gadget/built-in.o
 .text.lookup_string
                0x000000004023c1b8       0x64 drivers/usb/gadget/built-in.o
 .text.composite_unbind
                0x000000004023c21c      0x12c drivers/usb/gadget/built-in.o
 .text.composite_bind
                0x000000004023c348      0x128 drivers/usb/gadget/built-in.o
 .text.g_dnl_do_config
                0x000000004023c470       0x58 drivers/usb/gadget/built-in.o
 .text.reset_config.isra.0
                0x000000004023c4c8       0x5c drivers/usb/gadget/built-in.o
 .text.composite_disconnect
                0x000000004023c524       0x4c drivers/usb/gadget/built-in.o
 .text.composite_setup
                0x000000004023c570      0x7a0 drivers/usb/gadget/built-in.o
 .text.usb_add_function
                0x000000004023cd10       0xc0 drivers/usb/gadget/built-in.o
                0x000000004023cd10                usb_add_function
 .text.usb_interface_id
                0x000000004023cdd0       0x30 drivers/usb/gadget/built-in.o
                0x000000004023cdd0                usb_interface_id
 .text.usb_add_config
                0x000000004023ce00       0xd0 drivers/usb/gadget/built-in.o
                0x000000004023ce00                usb_add_config
 .text.usb_string_id
                0x000000004023ced0       0x28 drivers/usb/gadget/built-in.o
                0x000000004023ced0                usb_string_id
 .text.usb_composite_register
                0x000000004023cef8       0x74 drivers/usb/gadget/built-in.o
                0x000000004023cef8                usb_composite_register
 .text.usb_composite_unregister
                0x000000004023cf6c       0x38 drivers/usb/gadget/built-in.o
                0x000000004023cf6c                usb_composite_unregister
 .text.g_dnl_bind_fixup
                0x000000004023cfa4        0x8 drivers/usb/gadget/built-in.o
                0x000000004023cfa4                g_dnl_bind_fixup
 .text.g_dnl_get_board_bcd_device_number
                0x000000004023cfac        0x4 drivers/usb/gadget/built-in.o
                0x000000004023cfac                g_dnl_get_board_bcd_device_number
 .text.g_dnl_bind
                0x000000004023cfb0      0x154 drivers/usb/gadget/built-in.o
 .text.g_dnl_board_usb_cable_connected
                0x000000004023d104        0x8 drivers/usb/gadget/built-in.o
                0x000000004023d104                g_dnl_board_usb_cable_connected
 .text.g_dnl_register
                0x000000004023d10c       0x4c drivers/usb/gadget/built-in.o
                0x000000004023d10c                g_dnl_register
 .text.g_dnl_unregister
                0x000000004023d158        0xc drivers/usb/gadget/built-in.o
                0x000000004023d158                g_dnl_unregister
 .text.raise_exception
                0x000000004023d164       0x24 drivers/usb/gadget/built-in.o
 .text.ep0_queue
                0x000000004023d188       0x3c drivers/usb/gadget/built-in.o
 .text.bulk_in_complete
                0x000000004023d1c4       0x4c drivers/usb/gadget/built-in.o
 .text.bulk_out_complete
                0x000000004023d210       0x4c drivers/usb/gadget/built-in.o
 .text.fsg_set_alt
                0x000000004023d25c       0x28 drivers/usb/gadget/built-in.o
 .text.fsg_disable
                0x000000004023d284       0x10 drivers/usb/gadget/built-in.o
 .text.fsg_setup
                0x000000004023d294       0xf4 drivers/usb/gadget/built-in.o
 .text.fsg_unbind
                0x000000004023d388       0x4c drivers/usb/gadget/built-in.o
 .text.store_cdrom_address
                0x000000004023d3d4       0x60 drivers/usb/gadget/built-in.o
 .text.fsg_set_halt.isra.7
                0x000000004023d434       0x10 drivers/usb/gadget/built-in.o
 .text.start_transfer.isra.9
                0x000000004023d444       0x4c drivers/usb/gadget/built-in.o
 .text.halt_bulk_in_endpoint.isra.14
                0x000000004023d490       0x48 drivers/usb/gadget/built-in.o
 .text.sleep_thread.isra.17
                0x000000004023d4d8      0x108 drivers/usb/gadget/built-in.o
 .text.do_read  0x000000004023d5e0      0x208 drivers/usb/gadget/built-in.o
 .text.do_write
                0x000000004023d7e8      0x2f0 drivers/usb/gadget/built-in.o
 .text.send_status
                0x000000004023dad8      0x114 drivers/usb/gadget/built-in.o
 .text.check_command.isra.18
                0x000000004023dbec      0x184 drivers/usb/gadget/built-in.o
 .text.do_mode_sense.isra.20
                0x000000004023dd70      0x198 drivers/usb/gadget/built-in.o
 .text.fsg_add  0x000000004023df08      0x2c4 drivers/usb/gadget/built-in.o
                0x000000004023df08                fsg_add
 .text.do_set_interface
                0x000000004023e1cc      0x240 drivers/usb/gadget/built-in.o
 .text.fsg_main_thread
                0x000000004023e40c     0x119c drivers/usb/gadget/built-in.o
                0x000000004023e40c                fsg_main_thread
 .text.usb_copy_descriptors
                0x000000004023f5a8       0x9c drivers/usb/gadget/built-in.o
                0x000000004023f5a8                usb_copy_descriptors
 .text.fsg_bind
                0x000000004023f644       0xe8 drivers/usb/gadget/built-in.o
 .text.fsg_init
                0x000000004023f72c       0x18 drivers/usb/gadget/built-in.o
                0x000000004023f72c                fsg_init
 .text.usb_gadget_remove_driver
                0x000000004023f744       0x68 drivers/usb/gadget/udc/built-in.o
 .text.usb_udc_release
                0x000000004023f7ac        0x8 drivers/usb/gadget/udc/built-in.o
 .text.usb_gadget_map_request
                0x000000004023f7b4       0x18 drivers/usb/gadget/udc/built-in.o
                0x000000004023f7b4                usb_gadget_map_request
 .text.usb_gadget_unmap_request
                0x000000004023f7cc        0x4 drivers/usb/gadget/udc/built-in.o
                0x000000004023f7cc                usb_gadget_unmap_request
 .text.usb_gadget_giveback_request
                0x000000004023f7d0        0x8 drivers/usb/gadget/udc/built-in.o
                0x000000004023f7d0                usb_gadget_giveback_request
 .text.usb_gadget_set_state
                0x000000004023f7d8        0x8 drivers/usb/gadget/udc/built-in.o
                0x000000004023f7d8                usb_gadget_set_state
 .text.usb_gadget_udc_reset
                0x000000004023f7e0       0x2c drivers/usb/gadget/udc/built-in.o
                0x000000004023f7e0                usb_gadget_udc_reset
 .text.usb_add_gadget_udc_release
                0x000000004023f80c       0x74 drivers/usb/gadget/udc/built-in.o
                0x000000004023f80c                usb_add_gadget_udc_release
 .text.usb_add_gadget_udc
                0x000000004023f880        0x8 drivers/usb/gadget/udc/built-in.o
                0x000000004023f880                usb_add_gadget_udc
 .text.usb_del_gadget_udc
                0x000000004023f888       0x64 drivers/usb/gadget/udc/built-in.o
                0x000000004023f888                usb_del_gadget_udc
 .text.usb_gadget_probe_driver
                0x000000004023f8ec      0x104 drivers/usb/gadget/udc/built-in.o
                0x000000004023f8ec                usb_gadget_probe_driver
 .text.usb_gadget_register_driver
                0x000000004023f9f0        0x4 drivers/usb/gadget/udc/built-in.o
                0x000000004023f9f0                usb_gadget_register_driver
 .text.usb_gadget_unregister_driver
                0x000000004023f9f4       0x7c drivers/usb/gadget/udc/built-in.o
                0x000000004023f9f4                usb_gadget_unregister_driver
 .text.handshake
                0x000000004023fa70       0x70 drivers/usb/host/built-in.o
 .text.xhci_configure_endpoints
                0x000000004023fae0      0x100 drivers/usb/host/built-in.o
 .text.xhci_get_ctrl
                0x000000004023fbe0        0x8 drivers/usb/host/built-in.o
                0x000000004023fbe0                xhci_get_ctrl
 .text.xhci_reset
                0x000000004023fbe8       0xbc drivers/usb/host/built-in.o
                0x000000004023fbe8                xhci_reset
 .text._xhci_alloc_device
                0x000000004023fca4       0xd4 drivers/usb/host/built-in.o
                0x000000004023fca4                _xhci_alloc_device
 .text.usb_alloc_device
                0x000000004023fd78        0x4 drivers/usb/host/built-in.o
                0x000000004023fd78                usb_alloc_device
 .text.xhci_check_maxpacket
                0x000000004023fd7c       0xd8 drivers/usb/host/built-in.o
                0x000000004023fd7c                xhci_check_maxpacket
 .text.submit_control_msg
                0x000000004023fe54      0x848 drivers/usb/host/built-in.o
                0x000000004023fe54                submit_control_msg
 .text.submit_bulk_msg
                0x000000004024069c       0x40 drivers/usb/host/built-in.o
                0x000000004024069c                submit_bulk_msg
 .text.submit_int_msg
                0x00000000402406dc        0x8 drivers/usb/host/built-in.o
                0x00000000402406dc                submit_int_msg
 .text.usb_lowlevel_init
                0x00000000402406e4      0x1ec drivers/usb/host/built-in.o
                0x00000000402406e4                usb_lowlevel_init
 .text.usb_lowlevel_stop
                0x00000000402408d0       0x88 drivers/usb/host/built-in.o
                0x00000000402408d0                usb_lowlevel_stop
 .text.xhci_link_segments
                0x0000000040240958       0x3c drivers/usb/host/built-in.o
 .text.xhci_ring_free
                0x0000000040240994       0x98 drivers/usb/host/built-in.o
 .text.xhci_flush_cache
                0x0000000040240a2c       0x54 drivers/usb/host/built-in.o
                0x0000000040240a2c                xhci_flush_cache
 .text.xhci_malloc
                0x0000000040240a80       0x7c drivers/usb/host/built-in.o
 .text.xhci_segment_alloc
                0x0000000040240afc       0x64 drivers/usb/host/built-in.o
 .text.xhci_alloc_container_ctx.isra.5
                0x0000000040240b60       0xc8 drivers/usb/host/built-in.o
 .text.xhci_inval_cache
                0x0000000040240c28       0x54 drivers/usb/host/built-in.o
                0x0000000040240c28                xhci_inval_cache
 .text.xhci_cleanup
                0x0000000040240c7c       0xdc drivers/usb/host/built-in.o
                0x0000000040240c7c                xhci_cleanup
 .text.xhci_ring_alloc
                0x0000000040240d58      0x108 drivers/usb/host/built-in.o
                0x0000000040240d58                xhci_ring_alloc
 .text.xhci_alloc_virt_device
                0x0000000040240e60       0xf0 drivers/usb/host/built-in.o
                0x0000000040240e60                xhci_alloc_virt_device
 .text.xhci_mem_init
                0x0000000040240f50      0x2e8 drivers/usb/host/built-in.o
                0x0000000040240f50                xhci_mem_init
 .text.xhci_get_input_control_ctx
                0x0000000040241238       0x48 drivers/usb/host/built-in.o
                0x0000000040241238                xhci_get_input_control_ctx
 .text.xhci_get_slot_ctx
                0x0000000040241280       0x38 drivers/usb/host/built-in.o
                0x0000000040241280                xhci_get_slot_ctx
 .text.xhci_get_ep_ctx
                0x00000000402412b8       0x3c drivers/usb/host/built-in.o
                0x00000000402412b8                xhci_get_ep_ctx
 .text.xhci_endpoint_copy
                0x00000000402412f4       0x5c drivers/usb/host/built-in.o
                0x00000000402412f4                xhci_endpoint_copy
 .text.xhci_slot_copy
                0x0000000040241350       0x44 drivers/usb/host/built-in.o
                0x0000000040241350                xhci_slot_copy
 .text.xhci_setup_addressable_virt_dev
                0x0000000040241394      0x188 drivers/usb/host/built-in.o
                0x0000000040241394                xhci_setup_addressable_virt_dev
 .text.giveback_first_trb
                0x000000004024151c       0x84 drivers/usb/host/built-in.o
 .text.record_transfer_result
                0x00000000402415a0       0xa8 drivers/usb/host/built-in.o
 .text.queue_trb
                0x0000000040241648      0x160 drivers/usb/host/built-in.o
 .text.prepare_ring
                0x00000000402417a8      0x148 drivers/usb/host/built-in.o
 .text.xhci_queue_command
                0x00000000402418f0       0xc4 drivers/usb/host/built-in.o
                0x00000000402418f0                xhci_queue_command
 .text.xhci_acknowledge_event
                0x00000000402419b4       0x78 drivers/usb/host/built-in.o
                0x00000000402419b4                xhci_acknowledge_event
 .text.xhci_wait_for_event
                0x0000000040241a2c      0x12c drivers/usb/host/built-in.o
                0x0000000040241a2c                xhci_wait_for_event
 .text.reset_ep
                0x0000000040241b58      0x118 drivers/usb/host/built-in.o
 .text.abort_td
                0x0000000040241c70      0x16c drivers/usb/host/built-in.o
 .text.xhci_bulk_tx
                0x0000000040241ddc      0x350 drivers/usb/host/built-in.o
                0x0000000040241ddc                xhci_bulk_tx
 .text.xhci_ctrl_tx
                0x000000004024212c      0x360 drivers/usb/host/built-in.o
                0x000000004024212c                xhci_ctrl_tx
 .text.dwc3_set_mode
                0x000000004024248c       0x14 drivers/usb/host/built-in.o
                0x000000004024248c                dwc3_set_mode
 .text.dwc3_phy_reset
                0x00000000402424a0       0x64 drivers/usb/host/built-in.o
                0x00000000402424a0                dwc3_phy_reset
 .text.dwc3_core_soft_reset
                0x0000000040242504       0x50 drivers/usb/host/built-in.o
                0x0000000040242504                dwc3_core_soft_reset
 .text.dwc3_core_init
                0x0000000040242554       0x90 drivers/usb/host/built-in.o
                0x0000000040242554                dwc3_core_init
 .text.dwc3_set_fladj
                0x00000000402425e4       0x18 drivers/usb/host/built-in.o
                0x00000000402425e4                dwc3_set_fladj
 .text.xhci_hcd_init
                0x00000000402425fc      0x16c drivers/usb/host/built-in.o
                0x00000000402425fc                xhci_hcd_init
 .text.xhci_hcd_stop
                0x0000000040242768       0x18 drivers/usb/host/built-in.o
                0x0000000040242768                xhci_hcd_stop
 .text.fs_probe_unsupported
                0x0000000040242780       0x20 fs/built-in.o
 .text.fs_ls_unsupported
                0x00000000402427a0        0x8 fs/built-in.o
 .text.fs_exists_unsupported
                0x00000000402427a8        0x8 fs/built-in.o
 .text.fs_size_unsupported
                0x00000000402427b0        0x8 fs/built-in.o
 .text.fs_read_unsupported
                0x00000000402427b8        0x8 fs/built-in.o
 .text.fs_close_unsupported
                0x00000000402427c0        0x4 fs/built-in.o
 .text.fs_get_info
                0x00000000402427c4       0x34 fs/built-in.o
 .text.fs_close
                0x00000000402427f8       0x30 fs/built-in.o
 .text.fs_write_unsupported
                0x0000000040242828        0x8 fs/built-in.o
 .text.fs_uuid_unsupported
                0x0000000040242830        0x8 fs/built-in.o
 .text.fs_set_blk_dev
                0x0000000040242838       0xc8 fs/built-in.o
                0x0000000040242838                fs_set_blk_dev
 .text.fs_ls    0x0000000040242900       0x44 fs/built-in.o
                0x0000000040242900                fs_ls
 .text.fs_exists
                0x0000000040242944       0x40 fs/built-in.o
                0x0000000040242944                fs_exists
 .text.fs_size  0x0000000040242984       0x48 fs/built-in.o
                0x0000000040242984                fs_size
 .text.fs_read  0x00000000402429cc       0x8c fs/built-in.o
                0x00000000402429cc                fs_read
 .text.fs_write
                0x0000000040242a58       0x88 fs/built-in.o
                0x0000000040242a58                fs_write
 .text.do_size  0x0000000040242ae0       0x6c fs/built-in.o
                0x0000000040242ae0                do_size
 .text.do_load  0x0000000040242b4c      0x204 fs/built-in.o
                0x0000000040242b4c                do_load
 .text.do_ls    0x0000000040242d50       0x84 fs/built-in.o
                0x0000000040242d50                do_ls
 .text.file_exists
                0x0000000040242dd4       0x3c fs/built-in.o
                0x0000000040242dd4                file_exists
 .text.do_save  0x0000000040242e10      0x14c fs/built-in.o
                0x0000000040242e10                do_save
 .text.get_fs   0x0000000040242f5c        0xc fs/built-in.o
                0x0000000040242f5c                get_fs
 .text.ext4fs_free_node
                0x0000000040242f68       0x24 fs/built-in.o
                0x0000000040242f68                ext4fs_free_node
 .text.ext4fs_read_file
                0x0000000040242f8c      0x32c fs/built-in.o
                0x0000000040242f8c                ext4fs_read_file
 .text.ext4fs_ls
                0x00000000402432b8       0x80 fs/built-in.o
                0x00000000402432b8                ext4fs_ls
 .text.ext4fs_exists
                0x0000000040243338       0x20 fs/built-in.o
                0x0000000040243338                ext4fs_exists
 .text.ext4fs_size
                0x0000000040243358        0x4 fs/built-in.o
                0x0000000040243358                ext4fs_size
 .text.ext4fs_read
                0x000000004024335c       0x30 fs/built-in.o
                0x000000004024335c                ext4fs_read
 .text.ext4fs_probe
                0x000000004024338c       0x3c fs/built-in.o
                0x000000004024338c                ext4fs_probe
 .text.ext4_read_file
                0x00000000402433c8       0x7c fs/built-in.o
                0x00000000402433c8                ext4_read_file
 .text.ext4fs_uuid
                0x0000000040243444       0x18 fs/built-in.o
                0x0000000040243444                ext4fs_uuid
 .text.ext4fs_get_group_descriptor
                0x000000004024345c       0x14 fs/built-in.o
                0x000000004024345c                ext4fs_get_group_descriptor
 .text.ext4fs_sb_get_free_blocks
                0x0000000040243470       0x10 fs/built-in.o
                0x0000000040243470                ext4fs_sb_get_free_blocks
 .text.ext4fs_sb_set_free_blocks
                0x0000000040243480       0x10 fs/built-in.o
                0x0000000040243480                ext4fs_sb_set_free_blocks
 .text.ext4fs_bg_get_free_blocks
                0x0000000040243490       0x20 fs/built-in.o
                0x0000000040243490                ext4fs_bg_get_free_blocks
 .text.ext4fs_bg_get_block_id
                0x00000000402434b0       0x20 fs/built-in.o
                0x00000000402434b0                ext4fs_bg_get_block_id
 .text.ext4fs_bg_get_inode_id
                0x00000000402434d0       0x20 fs/built-in.o
                0x00000000402434d0                ext4fs_bg_get_inode_id
 .text.ext4fs_bg_get_inode_table_id
                0x00000000402434f0       0x20 fs/built-in.o
                0x00000000402434f0                ext4fs_bg_get_inode_table_id
 .text.ext4fs_div_roundup
                0x0000000040243510       0x14 fs/built-in.o
                0x0000000040243510                ext4fs_div_roundup
 .text.put_ext4
                0x0000000040243524      0x148 fs/built-in.o
                0x0000000040243524                put_ext4
 .text.ext4fs_set_block_bmap
                0x000000004024366c       0xac fs/built-in.o
                0x000000004024366c                ext4fs_set_block_bmap
 .text.ext4fs_reset_block_bmap
                0x0000000040243718       0x9c fs/built-in.o
                0x0000000040243718                ext4fs_reset_block_bmap
 .text.ext4fs_set_inode_bmap
                0x00000000402437b4       0x78 fs/built-in.o
                0x00000000402437b4                ext4fs_set_inode_bmap
 .text.ext4fs_reset_inode_bmap
                0x000000004024382c       0x6c fs/built-in.o
                0x000000004024382c                ext4fs_reset_inode_bmap
 .text.ext4fs_checksum_update
                0x0000000040243898       0x80 fs/built-in.o
                0x0000000040243898                ext4fs_checksum_update
 .text.ext4fs_get_new_blk_no
                0x0000000040243918      0x3f4 fs/built-in.o
                0x0000000040243918                ext4fs_get_new_blk_no
 .text.ext4fs_get_new_inode_no
                0x0000000040243d0c      0x3d8 fs/built-in.o
                0x0000000040243d0c                ext4fs_get_new_inode_no
 .text.ext4fs_allocate_blocks
                0x00000000402440e4      0x4ac fs/built-in.o
                0x00000000402440e4                ext4fs_allocate_blocks
 .text.ext4fs_read_inode
                0x0000000040244590      0x108 fs/built-in.o
                0x0000000040244590                ext4fs_read_inode
 .text.ext4fs_iget
                0x0000000040244698       0x2c fs/built-in.o
                0x0000000040244698                ext4fs_iget
 .text.read_allocated_block
                0x00000000402446c4      0x834 fs/built-in.o
                0x00000000402446c4                read_allocated_block
 .text.ext4fs_update_parent_dentry
                0x0000000040244ef8      0x380 fs/built-in.o
                0x0000000040244ef8                ext4fs_update_parent_dentry
 .text.search_dir
                0x0000000040245278      0x14c fs/built-in.o
 .text.ext4fs_get_parent_inode_num
                0x00000000402453c4      0x40c fs/built-in.o
                0x00000000402453c4                ext4fs_get_parent_inode_num
 .text.ext4fs_filename_unlink
                0x00000000402457d0      0x1c4 fs/built-in.o
                0x00000000402457d0                ext4fs_filename_unlink
 .text.ext4fs_reinit_global
                0x0000000040245994       0x90 fs/built-in.o
                0x0000000040245994                ext4fs_reinit_global
 .text.ext4fs_close
                0x0000000040245a24       0x4c fs/built-in.o
                0x0000000040245a24                ext4fs_close
 .text.ext4fs_iterate_dir
                0x0000000040245a70      0x290 fs/built-in.o
                0x0000000040245a70                ext4fs_iterate_dir
 .text.ext4fs_find_file1
                0x0000000040245d00      0x290 fs/built-in.o
 .text.ext4fs_find_file
                0x0000000040245f90       0x74 fs/built-in.o
                0x0000000040245f90                ext4fs_find_file
 .text.ext4fs_open
                0x0000000040246004       0xa0 fs/built-in.o
                0x0000000040246004                ext4fs_open
 .text.ext4fs_mount
                0x00000000402460a4       0xec fs/built-in.o
                0x00000000402460a4                ext4fs_mount
 .text.ext4fs_set_blk_dev
                0x0000000040246190       0x64 fs/built-in.o
                0x0000000040246190                ext4fs_set_blk_dev
 .text.ext4fs_devread
                0x00000000402461f4      0x260 fs/built-in.o
                0x00000000402461f4                ext4fs_devread
 .text.ext4_read_superblock
                0x0000000040246454       0x48 fs/built-in.o
                0x0000000040246454                ext4_read_superblock
 .text.ext4fs_update
                0x000000004024649c      0x110 fs/built-in.o
 .text.ext4fs_get_bgdtable
                0x00000000402465ac       0xd0 fs/built-in.o
                0x00000000402465ac                ext4fs_get_bgdtable
 .text.ext4fs_deinit
                0x000000004024667c      0x180 fs/built-in.o
                0x000000004024667c                ext4fs_deinit
 .text.ext4fs_init
                0x00000000402467fc      0x2e4 fs/built-in.o
                0x00000000402467fc                ext4fs_init
 .text.ext4fs_write
                0x0000000040246ae0     0x112c fs/built-in.o
                0x0000000040246ae0                ext4fs_write
 .text.ext4_write_file
                0x0000000040247c0c       0x5c fs/built-in.o
                0x0000000040247c0c                ext4_write_file
 .text.ext4fs_dump_metadata
                0x0000000040247c68       0x68 fs/built-in.o
                0x0000000040247c68                ext4fs_dump_metadata
 .text.ext4fs_free_journal
                0x0000000040247cd0       0xe0 fs/built-in.o
                0x0000000040247cd0                ext4fs_free_journal
 .text.ext4fs_log_gdt
                0x0000000040247db0       0xe4 fs/built-in.o
                0x0000000040247db0                ext4fs_log_gdt
 .text.ext4fs_log_journal
                0x0000000040247e94      0x100 fs/built-in.o
                0x0000000040247e94                ext4fs_log_journal
 .text.ext4fs_put_metadata
                0x0000000040247f94       0xe0 fs/built-in.o
                0x0000000040247f94                ext4fs_put_metadata
 .text.ext4fs_push_revoke_blk
                0x0000000040248074       0xf0 fs/built-in.o
                0x0000000040248074                ext4fs_push_revoke_blk
 .text.ext4fs_free_revoke_blks
                0x0000000040248164       0x68 fs/built-in.o
                0x0000000040248164                ext4fs_free_revoke_blks
 .text.check_blknr_for_revoke
                0x00000000402481cc       0x60 fs/built-in.o
                0x00000000402481cc                check_blknr_for_revoke
 .text.recover_transaction
                0x000000004024822c      0x164 fs/built-in.o
                0x000000004024822c                recover_transaction
 .text.print_jrnl_status
                0x0000000040248390       0x20 fs/built-in.o
                0x0000000040248390                print_jrnl_status
 .text.ext4fs_check_journal_state
                0x00000000402483b0      0x2d0 fs/built-in.o
                0x00000000402483b0                ext4fs_check_journal_state
 .text.ext4fs_init_journal
                0x0000000040248680      0x22c fs/built-in.o
                0x0000000040248680                ext4fs_init_journal
 .text.ext4fs_update_journal
                0x00000000402488ac      0x338 fs/built-in.o
                0x00000000402488ac                ext4fs_update_journal
 .text.ext2fs_crc16
                0x0000000040248be4       0x34 fs/built-in.o
                0x0000000040248be4                ext2fs_crc16
 .text.downcase
                0x0000000040248c18       0x2c fs/built-in.o
 .text.disk_read
                0x0000000040248c44       0x60 fs/built-in.o
 .text.dirdelim
                0x0000000040248ca4       0x34 fs/built-in.o
 .text.mkcksum  0x0000000040248cd8       0x54 fs/built-in.o
 .text.get_fatent
                0x0000000040248d2c      0x158 fs/built-in.o
 .text.get_cluster
                0x0000000040248e84      0x184 fs/built-in.o
 .text.get_name
                0x0000000040249008       0xd0 fs/built-in.o
 .text.read_bootsectandvi
                0x00000000402490d8      0x12c fs/built-in.o
 .text.slot2str
                0x0000000040249204       0xb0 fs/built-in.o
 .text.get_vfatname
                0x00000000402492b4      0x1e4 fs/built-in.o
 .text.fat_set_blk_dev
                0x0000000040249498       0xcc fs/built-in.o
                0x0000000040249498                fat_set_blk_dev
 .text.do_fat_read_at
                0x0000000040249564      0xb40 fs/built-in.o
                0x0000000040249564                do_fat_read_at
 .text.do_fat_read
                0x000000004024a0a4       0x1c fs/built-in.o
                0x000000004024a0a4                do_fat_read
 .text.file_fat_detectfs
                0x000000004024a0c0      0x140 fs/built-in.o
                0x000000004024a0c0                file_fat_detectfs
 .text.file_fat_ls
                0x000000004024a200       0x24 fs/built-in.o
                0x000000004024a200                file_fat_ls
 .text.fat_exists
                0x000000004024a224       0x34 fs/built-in.o
                0x000000004024a224                fat_exists
 .text.fat_size
                0x000000004024a258       0x1c fs/built-in.o
                0x000000004024a258                fat_size
 .text.file_fat_read_at
                0x000000004024a274       0x68 fs/built-in.o
                0x000000004024a274                file_fat_read_at
 .text.fat_read_file
                0x000000004024a2dc       0x48 fs/built-in.o
                0x000000004024a2dc                fat_read_file
 .text.fat_close
                0x000000004024a324        0x4 fs/built-in.o
                0x000000004024a324                fat_close
 .text.efi_return_handle
                0x000000004024a328        0xc lib/built-in.o
                0x000000004024a328                efi_return_handle
 .text.efi_load_pe
                0x000000004024a334      0x2a4 lib/built-in.o
                0x000000004024a334                efi_load_pe
 .text.efi_search.isra.0.part.1
                0x000000004024a5d8       0x5c lib/built-in.o
 .text.efi_save_gd
                0x000000004024a634        0xc lib/built-in.o
                0x000000004024a634                efi_save_gd
 .text.efi_restore_gd
                0x000000004024a640       0x24 lib/built-in.o
                0x000000004024a640                efi_restore_gd
 .text.efi_set_mem
                0x000000004024a664       0x28 lib/built-in.o
 .text.efi_copy_mem
                0x000000004024a68c       0x24 lib/built-in.o
 .text.efi_exit
                0x000000004024a6b0       0x48 lib/built-in.o
 .text.efi_allocate_pages_ext
                0x000000004024a6f8       0x30 lib/built-in.o
                0x000000004024a6f8                efi_allocate_pages_ext
 .text.efi_free_pages_ext
                0x000000004024a728       0x28 lib/built-in.o
                0x000000004024a728                efi_free_pages_ext
 .text.efi_get_memory_map_ext
                0x000000004024a750       0x30 lib/built-in.o
                0x000000004024a750                efi_get_memory_map_ext
 .text.efi_calculate_crc32
                0x000000004024a780       0x44 lib/built-in.o
 .text.efi_uninstall_multiple_protocol_interfaces
                0x000000004024a7c4       0x24 lib/built-in.o
 .text.efi_install_multiple_protocol_interfaces
                0x000000004024a7e8       0x24 lib/built-in.o
 .text.efi_locate_protocol
                0x000000004024a80c       0x64 lib/built-in.o
 .text.efi_locate_handle_buffer
                0x000000004024a870       0x24 lib/built-in.o
 .text.efi_close_protocol
                0x000000004024a894       0x24 lib/built-in.o
 .text.efi_open_protocol
                0x000000004024a8b8       0xe8 lib/built-in.o
 .text.efi_handle_protocol
                0x000000004024a9a0       0x10 lib/built-in.o
 .text.efi_disconnect_controller
                0x000000004024a9b0       0x24 lib/built-in.o
 .text.efi_connect_controller
                0x000000004024a9d4       0x24 lib/built-in.o
 .text.efi_set_watchdog_timer
                0x000000004024a9f8       0x20 lib/built-in.o
 .text.efi_stall
                0x000000004024aa18       0x2c lib/built-in.o
 .text.efi_get_next_monotonic_count
                0x000000004024aa44       0x38 lib/built-in.o
 .text.efi_exit_boot_services
                0x000000004024aa7c       0x28 lib/built-in.o
 .text.efi_unload_image
                0x000000004024aaa4       0x68 lib/built-in.o
 .text.efi_start_image
                0x000000004024ab0c       0x94 lib/built-in.o
 .text.efi_load_image
                0x000000004024aba0       0xd4 lib/built-in.o
 .text.efi_locate_handle
                0x000000004024ac74       0xf8 lib/built-in.o
 .text.efi_register_protocol_notify
                0x000000004024ad6c       0x24 lib/built-in.o
 .text.efi_uninstall_protocol_interface
                0x000000004024ad90       0x24 lib/built-in.o
 .text.efi_reinstall_protocol_interface
                0x000000004024adb4       0x20 lib/built-in.o
 .text.efi_install_protocol_interface
                0x000000004024add4       0x24 lib/built-in.o
 .text.efi_check_event
                0x000000004024adf8       0x24 lib/built-in.o
 .text.efi_close_event
                0x000000004024ae1c       0x2c lib/built-in.o
 .text.efi_signal_event
                0x000000004024ae48       0x20 lib/built-in.o
 .text.efi_set_timer
                0x000000004024ae68       0xbc lib/built-in.o
 .text.efi_create_event
                0x000000004024af24       0x58 lib/built-in.o
 .text.efi_free_pool_ext
                0x000000004024af7c       0x28 lib/built-in.o
 .text.efi_allocate_pool_ext
                0x000000004024afa4       0x30 lib/built-in.o
 .text.efi_restore_tpl
                0x000000004024afd4       0x1c lib/built-in.o
 .text.efi_raise_tpl
                0x000000004024aff0       0x20 lib/built-in.o
 .text.efi_open_protocol_information
                0x000000004024b010       0x24 lib/built-in.o
 .text.efi_protocols_per_handle
                0x000000004024b034       0x24 lib/built-in.o
 .text.efi_locate_device_path
                0x000000004024b058       0x24 lib/built-in.o
 .text.efi_exit_func
                0x000000004024b07c        0xc lib/built-in.o
                0x000000004024b07c                efi_exit_func
 .text.efi_timer_check
                0x000000004024b088       0x58 lib/built-in.o
                0x000000004024b088                efi_timer_check
 .text.efi_wait_for_event
                0x000000004024b0e0       0x38 lib/built-in.o
 .text.efi_install_configuration_table
                0x000000004024b118       0xc8 lib/built-in.o
                0x000000004024b118                efi_install_configuration_table
 .text.efi_install_configuration_table_ext
                0x000000004024b1e0       0x28 lib/built-in.o
 .text.efi_get_time_boottime
                0x000000004024b208        0x8 lib/built-in.o
 .text.efi_reset_system_boottime
                0x000000004024b210       0x34 lib/built-in.o
 .text.efi_reset_system_init
                0x000000004024b244        0x4 lib/built-in.o
                0x000000004024b244                efi_reset_system_init
 .text.efi_get_time_init
                0x000000004024b248        0x4 lib/built-in.o
                0x000000004024b248                efi_get_time_init
 .text.efi_runtime_relocate
                0x000000004024b24c       0xec lib/built-in.o
                0x000000004024b24c                efi_runtime_relocate
 .text.efi_set_virtual_address_map
                0x000000004024b338      0x138 lib/built-in.o
 .text.efi_cin_lock_std_in
                0x000000004024b470       0x18 lib/built-in.o
 .text.efi_cin_set_mode
                0x000000004024b488       0x18 lib/built-in.o
 .text.efi_cin_get_mode
                0x000000004024b4a0       0x4c lib/built-in.o
 .text.efi_cout_set_attribute
                0x000000004024b4ec       0x18 lib/built-in.o
 .text.efi_cout_test_string
                0x000000004024b504       0x18 lib/built-in.o
 .text.efi_cout_reset
                0x000000004024b51c       0x18 lib/built-in.o
 .text.efi_cin_reset
                0x000000004024b534       0x18 lib/built-in.o
 .text.efi_cout_enable_cursor
                0x000000004024b54c       0x40 lib/built-in.o
 .text.efi_cout_set_cursor_position
                0x000000004024b58c       0x48 lib/built-in.o
 .text.efi_cout_clear_screen
                0x000000004024b5d4       0x24 lib/built-in.o
 .text.efi_cout_output_string
                0x000000004024b5f8      0x128 lib/built-in.o
 .text.efi_cout_set_mode
                0x000000004024b720       0x48 lib/built-in.o
 .text.efi_cin_read_key_stroke
                0x000000004024b768      0x158 lib/built-in.o
 .text.efi_cout_query_mode
                0x000000004024b8c0      0x224 lib/built-in.o
 .text.efi_mem_cmp
                0x000000004024bae4       0x1c lib/built-in.o
 .text.efi_find_free_memory
                0x000000004024bb00       0x68 lib/built-in.o
 .text.efi_add_memory_map
                0x000000004024bb68      0x214 lib/built-in.o
                0x000000004024bb68                efi_add_memory_map
 .text.efi_allocate_pages
                0x000000004024bd7c       0x9c lib/built-in.o
                0x000000004024bd7c                efi_allocate_pages
 .text.efi_alloc
                0x000000004024be18       0x34 lib/built-in.o
                0x000000004024be18                efi_alloc
 .text.efi_free_pages
                0x000000004024be4c       0x38 lib/built-in.o
                0x000000004024be4c                efi_free_pages
 .text.efi_allocate_pool
                0x000000004024be84       0x60 lib/built-in.o
                0x000000004024be84                efi_allocate_pool
 .text.efi_free_pool
                0x000000004024bee4        0xc lib/built-in.o
                0x000000004024bee4                efi_free_pool
 .text.efi_get_memory_map
                0x000000004024bef0       0xc4 lib/built-in.o
                0x000000004024bef0                efi_get_memory_map
 .text.efi_memory_init
                0x000000004024bfb4       0x98 lib/built-in.o
                0x000000004024bfb4                efi_memory_init
 .text.efi_disk_open_block
                0x000000004024c04c       0x10 lib/built-in.o
 .text.efi_disk_open_dp
                0x000000004024c05c       0x10 lib/built-in.o
 .text.efi_disk_flush_blocks
                0x000000004024c06c       0x18 lib/built-in.o
 .text.efi_disk_reset
                0x000000004024c084       0x18 lib/built-in.o
 .text.efi_disk_read_blocks
                0x000000004024c09c       0x94 lib/built-in.o
 .text.efi_disk_write_blocks
                0x000000004024c130       0x94 lib/built-in.o
 .text.efi_disk_register
                0x000000004024c1c4      0x1e0 lib/built-in.o
                0x000000004024c1c4                efi_disk_register
 .text.efi_net_push
                0x000000004024c3a4       0x10 lib/built-in.o
 .text.efi_net_open_dp
                0x000000004024c3b4       0x10 lib/built-in.o
 .text.efi_net_open_pxe
                0x000000004024c3c4       0x10 lib/built-in.o
 .text.efi_net_get_status
                0x000000004024c3d4       0x44 lib/built-in.o
 .text.efi_net_nvdata
                0x000000004024c418       0x1c lib/built-in.o
 .text.efi_net_statistics
                0x000000004024c434       0x1c lib/built-in.o
 .text.efi_net_station_address
                0x000000004024c450       0x1c lib/built-in.o
 .text.efi_net_receive_filters
                0x000000004024c46c       0x18 lib/built-in.o
 .text.efi_net_reset
                0x000000004024c484       0x18 lib/built-in.o
 .text.efi_net_start
                0x000000004024c49c       0x18 lib/built-in.o
 .text.efi_net_stop
                0x000000004024c4b4        0x4 lib/built-in.o
 .text.efi_net_shutdown
                0x000000004024c4b8        0x4 lib/built-in.o
 .text.efi_net_initialize
                0x000000004024c4bc       0x1c lib/built-in.o
 .text.efi_net_receive
                0x000000004024c4d8       0x9c lib/built-in.o
 .text.efi_net_transmit
                0x000000004024c574       0x58 lib/built-in.o
 .text.efi_net_mcastiptomac
                0x000000004024c5cc       0x1c lib/built-in.o
 .text.efi_net_set_dhcp_ack
                0x000000004024c5e8       0x54 lib/built-in.o
                0x000000004024c5e8                efi_net_set_dhcp_ack
 .text.efi_net_register
                0x000000004024c63c      0x204 lib/built-in.o
                0x000000004024c63c                efi_net_register
 .text.efi_smbios_register
                0x000000004024c840       0x48 lib/built-in.o
                0x000000004024c840                efi_smbios_register
 .text.zcalloc  0x000000004024c888        0x8 lib/built-in.o
                0x000000004024c888                zcalloc
 .text.zcfree   0x000000004024c890        0x8 lib/built-in.o
                0x000000004024c890                zcfree
 .text.inflate_fast
                0x000000004024c898      0x500 lib/built-in.o
                0x000000004024c898                inflate_fast
 .text.inflate_table
                0x000000004024cd98      0x438 lib/built-in.o
                0x000000004024cd98                inflate_table
 .text.inflateReset
                0x000000004024d1d0       0x60 lib/built-in.o
                0x000000004024d1d0                inflateReset
 .text.inflateInit2_
                0x000000004024d230      0x104 lib/built-in.o
                0x000000004024d230                inflateInit2_
 .text.inflateEnd
                0x000000004024d334       0x64 lib/built-in.o
                0x000000004024d334                inflateEnd
 .text.adler32  0x000000004024d398      0x2f8 lib/built-in.o
                0x000000004024d398                adler32
 .text.inflate  0x000000004024d690     0x1364 lib/built-in.o
                0x000000004024d690                inflate
 .text.fdt_check_header
                0x000000004024e9f4       0x74 lib/built-in.o
                0x000000004024e9f4                fdt_check_header
 .text.fdt_offset_ptr
                0x000000004024ea68       0x74 lib/built-in.o
                0x000000004024ea68                fdt_offset_ptr
 .text.fdt_next_tag
                0x000000004024eadc       0xe0 lib/built-in.o
                0x000000004024eadc                fdt_next_tag
 .text._fdt_check_node_offset
                0x000000004024ebbc       0x40 lib/built-in.o
                0x000000004024ebbc                _fdt_check_node_offset
 .text._fdt_check_prop_offset
                0x000000004024ebfc       0x40 lib/built-in.o
                0x000000004024ebfc                _fdt_check_prop_offset
 .text.fdt_next_node
                0x000000004024ec3c       0xb0 lib/built-in.o
                0x000000004024ec3c                fdt_next_node
 .text.fdt_first_subnode
                0x000000004024ecec       0x34 lib/built-in.o
                0x000000004024ecec                fdt_first_subnode
 .text.fdt_next_subnode
                0x000000004024ed20       0x5c lib/built-in.o
                0x000000004024ed20                fdt_next_subnode
 .text._fdt_find_string
                0x000000004024ed7c       0x70 lib/built-in.o
                0x000000004024ed7c                _fdt_find_string
 .text.fdt_move
                0x000000004024edec       0x5c lib/built-in.o
                0x000000004024edec                fdt_move
 .text.fdt_path_next_separator
                0x000000004024ee48       0x68 lib/built-in.o
 .text._nextprop
                0x000000004024eeb0       0x64 lib/built-in.o
 .text.fdt_string
                0x000000004024ef14       0x14 lib/built-in.o
                0x000000004024ef14                fdt_string
 .text.fdt_get_mem_rsv
                0x000000004024ef28       0x60 lib/built-in.o
                0x000000004024ef28                fdt_get_mem_rsv
 .text.fdt_num_mem_rsv
                0x000000004024ef88       0x2c lib/built-in.o
                0x000000004024ef88                fdt_num_mem_rsv
 .text.fdt_subnode_offset_namelen
                0x000000004024efb4       0xec lib/built-in.o
                0x000000004024efb4                fdt_subnode_offset_namelen
 .text.fdt_subnode_offset
                0x000000004024f0a0       0x44 lib/built-in.o
                0x000000004024f0a0                fdt_subnode_offset
 .text.fdt_get_name
                0x000000004024f0e4       0x7c lib/built-in.o
                0x000000004024f0e4                fdt_get_name
 .text.fdt_first_property_offset
                0x000000004024f160       0x38 lib/built-in.o
                0x000000004024f160                fdt_first_property_offset
 .text.fdt_next_property_offset
                0x000000004024f198       0x38 lib/built-in.o
                0x000000004024f198                fdt_next_property_offset
 .text.fdt_get_property_by_offset
                0x000000004024f1d0       0x64 lib/built-in.o
                0x000000004024f1d0                fdt_get_property_by_offset
 .text.fdt_get_property_namelen
                0x000000004024f234       0xd4 lib/built-in.o
                0x000000004024f234                fdt_get_property_namelen
 .text.fdt_get_property
                0x000000004024f308       0x4c lib/built-in.o
                0x000000004024f308                fdt_get_property
 .text.fdt_getprop_namelen
                0x000000004024f354       0x20 lib/built-in.o
                0x000000004024f354                fdt_getprop_namelen
 .text.fdt_getprop_by_offset
                0x000000004024f374       0x54 lib/built-in.o
                0x000000004024f374                fdt_getprop_by_offset
 .text.fdt_getprop
                0x000000004024f3c8       0x4c lib/built-in.o
                0x000000004024f3c8                fdt_getprop
 .text.fdt_get_phandle
                0x000000004024f414       0x78 lib/built-in.o
                0x000000004024f414                fdt_get_phandle
 .text.fdt_get_alias_namelen
                0x000000004024f48c       0x64 lib/built-in.o
                0x000000004024f48c                fdt_get_alias_namelen
 .text.fdt_path_offset_namelen
                0x000000004024f4f0       0xfc lib/built-in.o
                0x000000004024f4f0                fdt_path_offset_namelen
 .text.fdt_path_offset
                0x000000004024f5ec       0x34 lib/built-in.o
                0x000000004024f5ec                fdt_path_offset
 .text.fdt_supernode_atdepth_offset
                0x000000004024f620       0xc0 lib/built-in.o
                0x000000004024f620                fdt_supernode_atdepth_offset
 .text.fdt_node_depth
                0x000000004024f6e0       0x30 lib/built-in.o
                0x000000004024f6e0                fdt_node_depth
 .text.fdt_parent_offset
                0x000000004024f710       0x44 lib/built-in.o
                0x000000004024f710                fdt_parent_offset
 .text.fdt_node_offset_by_phandle
                0x000000004024f754       0x84 lib/built-in.o
                0x000000004024f754                fdt_node_offset_by_phandle
 .text.fdt_stringlist_search
                0x000000004024f7d8       0xc4 lib/built-in.o
                0x000000004024f7d8                fdt_stringlist_search
 .text.fdt_stringlist_get
                0x000000004024f89c       0xb4 lib/built-in.o
                0x000000004024f89c                fdt_stringlist_get
 .text._fdt_blocks_misordered
                0x000000004024f950       0x60 lib/built-in.o
 .text._fdt_splice
                0x000000004024f9b0       0x98 lib/built-in.o
 .text._fdt_splice_mem_rsv
                0x000000004024fa48       0x6c lib/built-in.o
 .text._fdt_splice_struct
                0x000000004024fab4       0x60 lib/built-in.o
 .text._fdt_packblocks
                0x000000004024fb14       0xb0 lib/built-in.o
 .text._fdt_find_add_string
                0x000000004024fbc4       0xc0 lib/built-in.o
 .text._fdt_add_property
                0x000000004024fc84       0xb0 lib/built-in.o
 .text._fdt_rw_check_header
                0x000000004024fd34       0x6c lib/built-in.o
 .text.fdt_add_mem_rsv
                0x000000004024fda0       0x7c lib/built-in.o
                0x000000004024fda0                fdt_add_mem_rsv
 .text.fdt_del_mem_rsv
                0x000000004024fe1c       0x70 lib/built-in.o
                0x000000004024fe1c                fdt_del_mem_rsv
 .text.fdt_setprop
                0x000000004024fe8c       0xe8 lib/built-in.o
                0x000000004024fe8c                fdt_setprop
 .text.fdt_delprop
                0x000000004024ff74       0x74 lib/built-in.o
                0x000000004024ff74                fdt_delprop
 .text.fdt_add_subnode_namelen
                0x000000004024ffe8      0x11c lib/built-in.o
                0x000000004024ffe8                fdt_add_subnode_namelen
 .text.fdt_add_subnode
                0x0000000040250104       0x44 lib/built-in.o
                0x0000000040250104                fdt_add_subnode
 .text.fdt_del_node
                0x0000000040250148       0x60 lib/built-in.o
                0x0000000040250148                fdt_del_node
 .text.fdt_open_into
                0x00000000402501a8      0x1a0 lib/built-in.o
                0x00000000402501a8                fdt_open_into
 .text.fdt_strerror
                0x0000000040250348       0x4c lib/built-in.o
                0x0000000040250348                fdt_strerror
 .text._fdt_node_end_offset
                0x0000000040250394       0x4c lib/built-in.o
                0x0000000040250394                _fdt_node_end_offset
 .text.fdt_address_cells
                0x00000000402503e0       0x58 lib/built-in.o
                0x00000000402503e0                fdt_address_cells
 .text.fdt_size_cells
                0x0000000040250438       0x54 lib/built-in.o
                0x0000000040250438                fdt_size_cells
 .text.crc16_ccitt
                0x000000004025048c       0x38 lib/built-in.o
                0x000000004025048c                crc16_ccitt
 .text.fdtdec_get_int
                0x00000000402504c4       0x40 lib/built-in.o
                0x00000000402504c4                fdtdec_get_int
 .text.fdtdec_get_uint
                0x0000000040250504       0x40 lib/built-in.o
                0x0000000040250504                fdtdec_get_uint
 .text.gzalloc  0x0000000040250544       0x10 lib/built-in.o
                0x0000000040250544                gzalloc
 .text.gzfree   0x0000000040250554        0x8 lib/built-in.o
                0x0000000040250554                gzfree
 .text.zunzip   0x000000004025055c      0x11c lib/built-in.o
                0x000000004025055c                zunzip
 .text.gunzip   0x0000000040250678       0xc0 lib/built-in.o
                0x0000000040250678                gunzip
 .text.smbios_write_type127
                0x0000000040250738       0x68 lib/built-in.o
 .text.smbios_write_type32
                0x00000000402507a0       0x68 lib/built-in.o
 .text.smbios_string_table_len
                0x0000000040250808       0x44 lib/built-in.o
 .text.smbios_add_string
                0x000000004025084c       0x7c lib/built-in.o
 .text.smbios_write_type3
                0x00000000402508c8       0xa0 lib/built-in.o
 .text.smbios_write_type2
                0x0000000040250968       0xb0 lib/built-in.o
 .text.smbios_write_type0
                0x0000000040250a18      0x104 lib/built-in.o
 .text.smbios_write_type1
                0x0000000040250b1c       0xd4 lib/built-in.o
 .text.smbios_write_type4
                0x0000000040250bf0       0xe8 lib/built-in.o
 .text.write_smbios_table
                0x0000000040250cd8      0x13c lib/built-in.o
                0x0000000040250cd8                write_smbios_table
 .text.initcall_run_list
                0x0000000040250e14       0x80 lib/built-in.o
                0x0000000040250e14                initcall_run_list
 .text.lmb_add_region
                0x0000000040250e94      0x16c lib/built-in.o
 .text.lmb_init
                0x0000000040251000       0x18 lib/built-in.o
                0x0000000040251000                lmb_init
 .text.lmb_add  0x0000000040251018        0x4 lib/built-in.o
                0x0000000040251018                lmb_add
 .text.lmb_free
                0x000000004025101c       0xd4 lib/built-in.o
                0x000000004025101c                lmb_free
 .text.lmb_reserve
                0x00000000402510f0        0x8 lib/built-in.o
                0x00000000402510f0                lmb_reserve
 .text.__lmb_alloc_base
                0x00000000402510f8      0x108 lib/built-in.o
                0x00000000402510f8                __lmb_alloc_base
 .text.lmb_alloc_base
                0x0000000040251200       0x4c lib/built-in.o
                0x0000000040251200                lmb_alloc_base
 .text.lmb_alloc
                0x000000004025124c        0x8 lib/built-in.o
                0x000000004025124c                lmb_alloc
 .text.board_lmb_reserve
                0x0000000040251254        0x4 lib/built-in.o
                0x0000000040251254                board_lmb_reserve
 .text.MD5Transform
                0x0000000040251258      0xa00 lib/built-in.o
 .text.MD5Update
                0x0000000040251c58      0x104 lib/built-in.o
 .text.MD5Final
                0x0000000040251d5c       0xc4 lib/built-in.o
 .text.md5_wd   0x0000000040251e20       0x64 lib/built-in.o
                0x0000000040251e20                md5_wd
 .text.string_to_ip
                0x0000000040251e84       0xa0 lib/built-in.o
                0x0000000040251e84                string_to_ip
 .text.qsort    0x0000000040251f24       0xf4 lib/built-in.o
                0x0000000040251f24                qsort
 .text.strcmp_compar
                0x0000000040252018        0xc lib/built-in.o
                0x0000000040252018                strcmp_compar
 .text.merge    0x0000000040252024       0x8c lib/built-in.o
 .text.list_sort
                0x00000000402520b0      0x1a4 lib/built-in.o
                0x00000000402520b0                list_sort
 .text.sha1_process
                0x0000000040252254     0x154c lib/built-in.o
 .text.sha1_update.part.0
                0x00000000402537a0      0x108 lib/built-in.o
 .text.sha1_starts
                0x00000000402538a8       0x44 lib/built-in.o
                0x00000000402538a8                sha1_starts
 .text.sha1_update
                0x00000000402538ec        0xc lib/built-in.o
                0x00000000402538ec                sha1_update
 .text.sha1_finish
                0x00000000402538f8      0x17c lib/built-in.o
                0x00000000402538f8                sha1_finish
 .text.sha1_csum_wd
                0x0000000040253a74       0x48 lib/built-in.o
                0x0000000040253a74                sha1_csum_wd
 .text.sha256_process
                0x0000000040253abc     0x1fa8 lib/built-in.o
 .text.sha256_update.part.0
                0x0000000040255a64      0x104 lib/built-in.o
 .text.sha256_starts
                0x0000000040255b68       0x68 lib/built-in.o
                0x0000000040255b68                sha256_starts
 .text.sha256_update
                0x0000000040255bd0        0xc lib/built-in.o
                0x0000000040255bd0                sha256_update
 .text.sha256_finish
                0x0000000040255bdc      0x1bc lib/built-in.o
                0x0000000040255bdc                sha256_finish
 .text.sha256_csum_wd
                0x0000000040255d98       0x48 lib/built-in.o
                0x0000000040255d98                sha256_csum_wd
 .text.get_prop_check_min_len
                0x0000000040255de0       0x48 lib/built-in.o
 .text.fdtdec_get_is_enabled
                0x0000000040255e28       0x40 lib/built-in.o
                0x0000000040255e28                fdtdec_get_is_enabled
 .text.fdtdec_get_alias_seq
                0x0000000040255e68      0x128 lib/built-in.o
                0x0000000040255e68                fdtdec_get_alias_seq
 .text.fdtdec_prepare_fdt
                0x0000000040255f90       0x44 lib/built-in.o
                0x0000000040255f90                fdtdec_prepare_fdt
 .text.fdtdec_get_int_array
                0x0000000040255fd4       0x60 lib/built-in.o
                0x0000000040255fd4                fdtdec_get_int_array
 .text.fdtdec_get_int_array_count
                0x0000000040256034       0x68 lib/built-in.o
                0x0000000040256034                fdtdec_get_int_array_count
 .text.fdtdec_get_bool
                0x000000004025609c       0x20 lib/built-in.o
                0x000000004025609c                fdtdec_get_bool
 .text.fdtdec_parse_phandle_with_args
                0x00000000402560bc      0x154 lib/built-in.o
                0x00000000402560bc                fdtdec_parse_phandle_with_args
 .text.fdtdec_get_config_int
                0x0000000040256210       0x60 lib/built-in.o
                0x0000000040256210                fdtdec_get_config_int
 .text.fdtdec_get_config_string
                0x0000000040256270       0x4c lib/built-in.o
                0x0000000040256270                fdtdec_get_config_string
 .text.fdtdec_get_number
                0x00000000402562bc       0x30 lib/built-in.o
                0x00000000402562bc                fdtdec_get_number
 .text.fdtdec_get_addr_size_fixed
                0x00000000402562ec       0xe0 lib/built-in.o
                0x00000000402562ec                fdtdec_get_addr_size_fixed
 .text.fdtdec_get_addr_size
                0x00000000402563cc       0x20 lib/built-in.o
                0x00000000402563cc                fdtdec_get_addr_size
 .text.fdtdec_get_addr
                0x00000000402563ec        0x8 lib/built-in.o
                0x00000000402563ec                fdtdec_get_addr
 .text.fdtdec_setup
                0x00000000402563f4       0x34 lib/built-in.o
                0x00000000402563f4                fdtdec_setup
 .text.cmpkey   0x0000000040256428       0x14 lib/built-in.o
 .text._hdelete.isra.0
                0x000000004025643c       0x64 lib/built-in.o
 .text.drop_var_from_set.part.1
                0x00000000402564a0       0x6c lib/built-in.o
 .text.match_string
                0x000000004025650c       0xd8 lib/built-in.o
 .text.match_entry
                0x00000000402565e4       0xd4 lib/built-in.o
 .text.hcreate_r
                0x00000000402566b8       0x90 lib/built-in.o
                0x00000000402566b8                hcreate_r
 .text.hdestroy_r
                0x0000000040256748       0x88 lib/built-in.o
                0x0000000040256748                hdestroy_r
 .text.hmatch_r
                0x00000000402567d0       0xb8 lib/built-in.o
                0x00000000402567d0                hmatch_r
 .text.hsearch_r
                0x0000000040256888      0x420 lib/built-in.o
                0x0000000040256888                hsearch_r
 .text.hdelete_r
                0x0000000040256ca8       0xf4 lib/built-in.o
                0x0000000040256ca8                hdelete_r
 .text.hexport_r
                0x0000000040256d9c      0x278 lib/built-in.o
                0x0000000040256d9c                hexport_r
 .text.himport_r
                0x0000000040257014      0x3a8 lib/built-in.o
                0x0000000040257014                himport_r
 .text.hwalk_r  0x00000000402573bc       0x70 lib/built-in.o
                0x00000000402573bc                hwalk_r
 .text.display_options
                0x000000004025742c       0x28 lib/built-in.o
                0x000000004025742c                display_options
 .text.print_size
                0x0000000040257454       0xf8 lib/built-in.o
                0x0000000040257454                print_size
 .text.print_buffer
                0x000000004025754c      0x1e8 lib/built-in.o
                0x000000004025754c                print_buffer
 .text.crc32_no_comp
                0x0000000040257734       0xdc lib/built-in.o
                0x0000000040257734                crc32_no_comp
 .text.crc32    0x0000000040257810       0x1c lib/built-in.o
                0x0000000040257810                crc32
 .text.crc32_wd
                0x000000004025782c        0x4 lib/built-in.o
                0x000000004025782c                crc32_wd
 .text.__div64_32
                0x0000000040257830       0x70 lib/built-in.o
                0x0000000040257830                __div64_32
 .text.hang     0x00000000402578a0       0x20 lib/built-in.o
                0x00000000402578a0                hang
 .text.kmalloc  0x00000000402578c0       0x4c lib/built-in.o
                0x00000000402578c0                kmalloc
 .text.skip_spaces
                0x000000004025790c       0x20 lib/built-in.o
                0x000000004025790c                skip_spaces
 .text.strim    0x000000004025792c       0x5c lib/built-in.o
                0x000000004025792c                strim
 .text.emit     0x0000000040257988       0x2c lib/built-in.o
 .text.store_char_in_data
                0x00000000402579b4       0x30 lib/built-in.o
 .text.get_escape_char
                0x00000000402579e4       0x84 lib/built-in.o
 .text.relocate
                0x0000000040257a68       0x58 lib/built-in.o
 .text.match    0x0000000040257ac0      0x3f8 lib/built-in.o
 .text.loop_greedy
                0x0000000040257eb8       0xb4 lib/built-in.o
 .text.loop_non_greedy
                0x0000000040257f6c       0xa0 lib/built-in.o
 .text.quantifier
                0x000000004025800c       0xbc lib/built-in.o
 .text.fixup_branch
                0x00000000402580c8       0x54 lib/built-in.o
 .text.compile  0x000000004025811c      0x378 lib/built-in.o
 .text.slre_compile
                0x0000000040258494       0xd4 lib/built-in.o
                0x0000000040258494                slre_compile
 .text.slre_match
                0x0000000040258568       0x9c lib/built-in.o
                0x0000000040258568                slre_match
 .text.strncasecmp
                0x0000000040258604       0x78 lib/built-in.o
                0x0000000040258604                strncasecmp
 .text.strcasecmp
                0x000000004025867c        0x8 lib/built-in.o
                0x000000004025867c                strcasecmp
 .text.strcpy   0x0000000040258684       0x18 lib/built-in.o
                0x0000000040258684                strcpy
 .text.strncpy  0x000000004025869c       0x20 lib/built-in.o
                0x000000004025869c                strncpy
 .text.strcat   0x00000000402586bc       0x30 lib/built-in.o
                0x00000000402586bc                strcat
 .text.strncat  0x00000000402586ec       0x44 lib/built-in.o
                0x00000000402586ec                strncat
 .text.strcmp   0x0000000040258730       0x28 lib/built-in.o
                0x0000000040258730                strcmp
 .text.strncmp  0x0000000040258758       0x38 lib/built-in.o
                0x0000000040258758                strncmp
 .text.strchr   0x0000000040258790       0x28 lib/built-in.o
                0x0000000040258790                strchr
 .text.strlen   0x00000000402587b8       0x1c lib/built-in.o
                0x00000000402587b8                strlen
 .text.strrchr  0x00000000402587d4       0x40 lib/built-in.o
                0x00000000402587d4                strrchr
 .text.strnlen  0x0000000040258814       0x28 lib/built-in.o
                0x0000000040258814                strnlen
 .text.strdup   0x000000004025883c       0x4c lib/built-in.o
                0x000000004025883c                strdup
 .text.strspn   0x0000000040258888       0x38 lib/built-in.o
                0x0000000040258888                strspn
 .text.strpbrk  0x00000000402588c0       0x34 lib/built-in.o
                0x00000000402588c0                strpbrk
 .text.strtok   0x00000000402588f4       0x7c lib/built-in.o
                0x00000000402588f4                strtok
 .text.strsep   0x0000000040258970       0x40 lib/built-in.o
                0x0000000040258970                strsep
 .text.memset   0x00000000402589b0       0x70 lib/built-in.o
                0x00000000402589b0                memset
 .text.memcpy   0x0000000040258a20       0x70 lib/built-in.o
                0x0000000040258a20                memcpy
 .text.strlcpy  0x0000000040258a90       0x50 lib/built-in.o
                0x0000000040258a90                strlcpy
 .text.memmove  0x0000000040258ae0       0x44 lib/built-in.o
                0x0000000040258ae0                memmove
 .text.memcmp   0x0000000040258b24       0x30 lib/built-in.o
                0x0000000040258b24                memcmp
 .text.strstr   0x0000000040258b54       0x68 lib/built-in.o
                0x0000000040258b54                strstr
 .text.memchr   0x0000000040258bbc       0x30 lib/built-in.o
                0x0000000040258bbc                memchr
 .text.tick_to_time
                0x0000000040258bec       0x4c lib/built-in.o
 .text.get_timer
                0x0000000040258c38       0x28 lib/built-in.o
                0x0000000040258c38                get_timer
 .text.timer_get_us
                0x0000000040258c60       0x1c lib/built-in.o
                0x0000000040258c60                timer_get_us
 .text.__udelay
                0x0000000040258c7c       0x7c lib/built-in.o
                0x0000000040258c7c                __udelay
 .text.udelay   0x0000000040258cf8       0x44 lib/built-in.o
                0x0000000040258cf8                udelay
 .text.put_dec_trunc
                0x0000000040258d3c       0xe0 lib/built-in.o
 .text.string   0x0000000040258e1c       0xdc lib/built-in.o
 .text.put_dec  0x0000000040258ef8      0x124 lib/built-in.o
 .text.number   0x000000004025901c      0x2cc lib/built-in.o
 .text.vsnprintf_internal
                0x00000000402592e8      0x90c lib/built-in.o
 .text.vscnprintf
                0x0000000040259bf4       0x74 lib/built-in.o
                0x0000000040259bf4                vscnprintf
 .text.snprintf
                0x0000000040259c68       0x58 lib/built-in.o
                0x0000000040259c68                snprintf
 .text.vsprintf
                0x0000000040259cc0       0x44 lib/built-in.o
                0x0000000040259cc0                vsprintf
 .text.sprintf  0x0000000040259d04       0x50 lib/built-in.o
                0x0000000040259d04                sprintf
 .text.printf   0x0000000040259d54       0x88 lib/built-in.o
                0x0000000040259d54                printf
 .text.vprintf  0x0000000040259ddc       0x54 lib/built-in.o
                0x0000000040259ddc                vprintf
 .text.simple_itoa
                0x0000000040259e30       0x40 lib/built-in.o
                0x0000000040259e30                simple_itoa
 .text.str2off  0x0000000040259e70       0x50 lib/built-in.o
                0x0000000040259e70                str2off
 .text.panic_finish
                0x0000000040259ec0       0x34 lib/built-in.o
 .text.panic    0x0000000040259ef4       0x50 lib/built-in.o
                0x0000000040259ef4                panic
 .text.simple_strtoul
                0x0000000040259f44       0xd8 lib/built-in.o
                0x0000000040259f44                simple_strtoul
 .text.strict_strtoul
                0x000000004025a01c       0x88 lib/built-in.o
                0x000000004025a01c                strict_strtoul
 .text.simple_strtol
                0x000000004025a0a4       0x2c lib/built-in.o
                0x000000004025a0a4                simple_strtol
 .text.ustrtoul
                0x000000004025a0d0       0x7c lib/built-in.o
                0x000000004025a0d0                ustrtoul
 .text.simple_strtoull
                0x000000004025a14c       0xd8 lib/built-in.o
                0x000000004025a14c                simple_strtoull
 .text.ustrtoull
                0x000000004025a224       0x7c lib/built-in.o
                0x000000004025a224                ustrtoull
 .text.trailing_strtoln
                0x000000004025a2a0       0x78 lib/built-in.o
                0x000000004025a2a0                trailing_strtoln
 .text.trailing_strtol
                0x000000004025a318        0x8 lib/built-in.o
                0x000000004025a318                trailing_strtol
 .text.compute_ip_checksum
                0x000000004025a320       0x8c net/built-in.o
                0x000000004025a320                compute_ip_checksum
 .text.ip_checksum_ok
                0x000000004025a3ac       0x1c net/built-in.o
                0x000000004025a3ac                ip_checksum_ok
 .text.arp_init
                0x000000004025a3c8       0x3c net/built-in.o
                0x000000004025a3c8                arp_init
 .text.arp_raw_request
                0x000000004025a404       0xec net/built-in.o
                0x000000004025a404                arp_raw_request
 .text.arp_request
                0x000000004025a4f0       0x84 net/built-in.o
                0x000000004025a4f0                arp_request
 .text.arp_timeout_check
                0x000000004025a574       0x90 net/built-in.o
                0x000000004025a574                arp_timeout_check
 .text.arp_receive
                0x000000004025a604      0x228 net/built-in.o
                0x000000004025a604                arp_receive
 .text.dhcp_extended
                0x000000004025a82c      0x1d8 net/built-in.o
 .text.dhcp_process_options
                0x000000004025aa04      0x228 net/built-in.o
 .text.dhcp_packet_process_options
                0x000000004025ac2c       0x88 net/built-in.o
 .text.dhcp_handler
                0x000000004025acb4      0x3cc net/built-in.o
 .text.bootp_reset
                0x000000004025b080       0x3c net/built-in.o
                0x000000004025b080                bootp_reset
 .text.bootp_request
                0x000000004025b0bc      0x278 net/built-in.o
                0x000000004025b0bc                bootp_request
 .text.bootp_timeout_handler
                0x000000004025b334       0x68 net/built-in.o
 .text.dhcp_request
                0x000000004025b39c        0x4 net/built-in.o
                0x000000004025b39c                dhcp_request
 .text.eth_get_uclass_priv
                0x000000004025b3a0       0x30 net/built-in.o
 .text.eth_pre_remove
                0x000000004025b3d0       0x40 net/built-in.o
 .text.eth_write_hwaddr
                0x000000004025b410       0xdc net/built-in.o
 .text.on_ethaddr
                0x000000004025b4ec       0x90 net/built-in.o
 .text.eth_post_probe
                0x000000004025b57c      0x180 net/built-in.o
 .text.eth_post_bind
                0x000000004025b6fc       0x48 net/built-in.o
 .text.eth_set_current_to_next
                0x000000004025b744       0x48 net/built-in.o
                0x000000004025b744                eth_set_current_to_next
 .text.eth_get_dev
                0x000000004025b78c       0x40 net/built-in.o
                0x000000004025b78c                eth_get_dev
 .text.eth_set_dev
                0x000000004025b7cc       0x44 net/built-in.o
                0x000000004025b7cc                eth_set_dev
 .text.eth_pre_unbind
                0x000000004025b810       0x38 net/built-in.o
 .text.eth_get_dev_by_name
                0x000000004025b848       0xfc net/built-in.o
                0x000000004025b848                eth_get_dev_by_name
 .text.eth_get_ethaddr
                0x000000004025b944       0x2c net/built-in.o
                0x000000004025b944                eth_get_ethaddr
 .text.eth_halt_state_only
                0x000000004025b970       0x2c net/built-in.o
                0x000000004025b970                eth_halt_state_only
 .text.eth_get_dev_index
                0x000000004025b99c       0x28 net/built-in.o
                0x000000004025b99c                eth_get_dev_index
 .text.eth_init
                0x000000004025b9c4       0xf8 net/built-in.o
                0x000000004025b9c4                eth_init
 .text.eth_halt
                0x000000004025babc       0x48 net/built-in.o
                0x000000004025babc                eth_halt
 .text.eth_send
                0x000000004025bb04       0x5c net/built-in.o
                0x000000004025bb04                eth_send
 .text.eth_rx   0x000000004025bb60       0xc8 net/built-in.o
                0x000000004025bb60                eth_rx
 .text.eth_initialize
                0x000000004025bc28      0x118 net/built-in.o
                0x000000004025bc28                eth_initialize
 .text.eth_parse_enetaddr
                0x000000004025bd40       0x70 net/built-in.o
                0x000000004025bd40                eth_parse_enetaddr
 .text.eth_getenv_enetaddr
                0x000000004025bdb0       0x6c net/built-in.o
                0x000000004025bdb0                eth_getenv_enetaddr
 .text.eth_setenv_enetaddr
                0x000000004025be1c       0x3c net/built-in.o
                0x000000004025be1c                eth_setenv_enetaddr
 .text.eth_getenv_enetaddr_by_index
                0x000000004025be58       0x50 net/built-in.o
                0x000000004025be58                eth_getenv_enetaddr_by_index
 .text.eth_setenv_enetaddr_by_index
                0x000000004025bea8       0x50 net/built-in.o
                0x000000004025bea8                eth_setenv_enetaddr_by_index
 .text.eth_common_init
                0x000000004025bef8       0x1c net/built-in.o
                0x000000004025bef8                eth_common_init
 .text.eth_mac_skip
                0x000000004025bf14       0x44 net/built-in.o
                0x000000004025bf14                eth_mac_skip
 .text.eth_get_name
                0x000000004025bf58       0x2c net/built-in.o
                0x000000004025bf58                eth_get_name
 .text.eth_current_changed
                0x000000004025bf84       0x90 net/built-in.o
                0x000000004025bf84                eth_current_changed
 .text.eth_try_another
                0x000000004025c014       0x80 net/built-in.o
                0x000000004025c014                eth_try_another
 .text.eth_set_current
                0x000000004025c094       0x8c net/built-in.o
                0x000000004025c094                eth_set_current
 .text.net_clear_handlers
                0x000000004025c120       0x24 net/built-in.o
 .text.start_again_timeout_handler
                0x000000004025c144       0x10 net/built-in.o
 .text.dummy_handler
                0x000000004025c154        0x4 net/built-in.o
 .text.on_ipaddr
                0x000000004025c158       0x34 net/built-in.o
 .text.on_gatewayip
                0x000000004025c18c       0x34 net/built-in.o
 .text.on_netmask
                0x000000004025c1c0       0x34 net/built-in.o
 .text.on_serverip
                0x000000004025c1f4       0x34 net/built-in.o
 .text.net_init_loop.part.0
                0x000000004025c228       0x24 net/built-in.o
 .text.net_auto_load
                0x000000004025c24c       0x6c net/built-in.o
                0x000000004025c24c                net_auto_load
 .text.net_init
                0x000000004025c2b8       0x84 net/built-in.o
                0x000000004025c2b8                net_init
 .text.net_start_again
                0x000000004025c33c      0x150 net/built-in.o
                0x000000004025c33c                net_start_again
 .text.net_loop
                0x000000004025c48c      0x304 net/built-in.o
                0x000000004025c48c                net_loop
 .text.net_set_udp_handler
                0x000000004025c790       0x1c net/built-in.o
                0x000000004025c790                net_set_udp_handler
 .text.net_get_arp_handler
                0x000000004025c7ac        0xc net/built-in.o
                0x000000004025c7ac                net_get_arp_handler
 .text.net_set_timeout_handler
                0x000000004025c7b8       0x54 net/built-in.o
                0x000000004025c7b8                net_set_timeout_handler
 .text.net_process_received_packet
                0x000000004025c80c      0x2e8 net/built-in.o
                0x000000004025c80c                net_process_received_packet
 .text.net_eth_hdr_size
                0x000000004025caf4       0x3c net/built-in.o
                0x000000004025caf4                net_eth_hdr_size
 .text.net_set_ether
                0x000000004025cb30       0xc0 net/built-in.o
                0x000000004025cb30                net_set_ether
 .text.net_update_ether
                0x000000004025cbf0       0xa8 net/built-in.o
                0x000000004025cbf0                net_update_ether
 .text.net_set_ip_header
                0x000000004025cc98       0xa0 net/built-in.o
                0x000000004025cc98                net_set_ip_header
 .text.net_set_udp_header
                0x000000004025cd38       0xc0 net/built-in.o
                0x000000004025cd38                net_set_udp_header
 .text.net_send_udp_packet
                0x000000004025cdf8      0x110 net/built-in.o
                0x000000004025cdf8                net_send_udp_packet
 .text.copy_filename
                0x000000004025cf08       0x44 net/built-in.o
                0x000000004025cf08                copy_filename
 .text.on_bootfile
                0x000000004025cf4c       0x40 net/built-in.o
 .text.ip_to_string
                0x000000004025cf8c       0x28 net/built-in.o
                0x000000004025cf8c                ip_to_string
 .text.string_to_vlan
                0x000000004025cfb4       0x58 net/built-in.o
                0x000000004025cfb4                string_to_vlan
 .text.on_nvlan
                0x000000004025d00c       0x34 net/built-in.o
 .text.on_vlan  0x000000004025d040       0x34 net/built-in.o
 .text.rpc_lookup_reply
                0x000000004025d074       0xc0 net/built-in.o
 .text.nfs_mount_reply
                0x000000004025d134       0xa0 net/built-in.o
 .text.nfs_umountall_reply
                0x000000004025d1d4       0x94 net/built-in.o
 .text.nfs_lookup_reply
                0x000000004025d268      0x114 net/built-in.o
 .text.nfs3_get_attributes_offset
                0x000000004025d37c       0x14 net/built-in.o
 .text.nfs_readlink_reply
                0x000000004025d390      0x140 net/built-in.o
 .text.basename
                0x000000004025d4d0       0x48 net/built-in.o
 .text.rpc_req  0x000000004025d518      0x12c net/built-in.o
 .text.nfs_read_req
                0x000000004025d644       0xec net/built-in.o
 .text.nfs_read_reply.isra.0
                0x000000004025d730      0x16c net/built-in.o
 .text.nfs_mount_req
                0x000000004025d89c       0xb4 net/built-in.o
 .text.nfs_readlink_req
                0x000000004025d950       0xc4 net/built-in.o
 .text.nfs_lookup_req
                0x000000004025da14      0x148 net/built-in.o
 .text.nfs_umountall_req
                0x000000004025db5c       0x6c net/built-in.o
 .text.nfs_send
                0x000000004025dbc8      0x104 net/built-in.o
 .text.nfs_handler
                0x000000004025dccc      0x234 net/built-in.o
 .text.nfs_timeout_handler
                0x000000004025df00       0x70 net/built-in.o
 .text.nfs_start
                0x000000004025df70      0x148 net/built-in.o
                0x000000004025df70                nfs_start
 .text.ping_timeout_handler
                0x000000004025e0b8       0x20 net/built-in.o
 .text.ping_start
                0x000000004025e0d8      0x13c net/built-in.o
                0x000000004025e0d8                ping_start
 .text.ping_receive
                0x000000004025e214      0x110 net/built-in.o
                0x000000004025e214                ping_receive
 .text.tftp_send
                0x000000004025e324      0x1ac net/built-in.o
 .text.tftp_handler
                0x000000004025e4d0      0x388 net/built-in.o
 .text.tftp_timeout_handler
                0x000000004025e858       0x84 net/built-in.o
 .text.tftp_start
                0x000000004025e8dc      0x330 net/built-in.o
                0x000000004025e8dc                tftp_start
 .text.do_dm_dump_devres
                0x000000004025ec0c        0x8 test/dm/built-in.o
 .text.do_dm    0x000000004025ec14       0x94 test/dm/built-in.o
 .text.do_dm_dump_uclass
                0x000000004025eca8       0x18 test/dm/built-in.o
 .text.do_dm_dump_all
                0x000000004025ecc0       0x18 test/dm/built-in.o
                0x000000004025ecd8                . = ALIGN (0x8)

.rodata         0x000000004025ecd8    0x13d3a
 *(SORT(.rodata*))
 .rodata        0x000000004025ecd8       0x30 arch/arm/cpu/armv8/built-in.o
 .rodata        0x000000004025ed08       0x16 cmd/built-in.o
 *fill*         0x000000004025ed1e        0x2 
 .rodata.CSWTCH.11
                0x000000004025ed20       0x10 arch/arm/cpu/armv8/built-in.o
 .rodata.CSWTCH.125
                0x000000004025ed30       0xd8 common/built-in.o
 .rodata.CSWTCH.16
                0x000000004025ee08        0x5 drivers/built-in.o
 *fill*         0x000000004025ee0d        0x3 
 .rodata.CSWTCH.17
                0x000000004025ee10        0x5 drivers/built-in.o
 *fill*         0x000000004025ee15        0x3 
 .rodata.CSWTCH.18
                0x000000004025ee18        0x5 drivers/built-in.o
 *fill*         0x000000004025ee1d        0x3 
 .rodata.CSWTCH.19
                0x000000004025ee20        0x7 drivers/built-in.o
 *fill*         0x000000004025ee27        0x1 
 .rodata.CSWTCH.20
                0x000000004025ee28        0x7 drivers/built-in.o
 *fill*         0x000000004025ee2f        0x1 
 .rodata.CSWTCH.21
                0x000000004025ee30        0x7 drivers/built-in.o
 *fill*         0x000000004025ee37        0x1 
 .rodata.CSWTCH.27
                0x000000004025ee38       0x40 common/built-in.o
 .rodata.CSWTCH.35
                0x000000004025ee78       0x28 cmd/built-in.o
 .rodata.CSWTCH.35
                0x000000004025eea0       0x40 disk/built-in.o
 .rodata.CSWTCH.43
                0x000000004025eee0       0x16 common/built-in.o
 *fill*         0x000000004025eef6        0x2 
 .rodata.CSWTCH.7
                0x000000004025eef8      0x190 arch/arm/imx-common/built-in.o
 .rodata.__FUNCTION__.6607
                0x000000004025f088       0x17 common/built-in.o
 *fill*         0x000000004025f09f        0x1 
 .rodata.__FUNCTION__.6753
                0x000000004025f0a0       0x17 common/built-in.o
 *fill*         0x000000004025f0b7        0x1 
 .rodata.__FUNCTION__.6776
                0x000000004025f0b8        0xc drivers/built-in.o
 *fill*         0x000000004025f0c4        0x4 
 .rodata.__FUNCTION__.6784
                0x000000004025f0c8        0xb drivers/built-in.o
 *fill*         0x000000004025f0d3        0x5 
 .rodata.__FUNCTION__.7574
                0x000000004025f0d8       0x13 drivers/usb/host/built-in.o
 *fill*         0x000000004025f0eb        0x5 
 .rodata.__FUNCTION__.7609
                0x000000004025f0f0       0x14 drivers/usb/host/built-in.o
 *fill*         0x000000004025f104        0x4 
 .rodata.__FUNCTION__.7619
                0x000000004025f108        0x9 drivers/usb/host/built-in.o
 *fill*         0x000000004025f111        0x7 
 .rodata.__FUNCTION__.7628
                0x000000004025f118        0x9 drivers/usb/host/built-in.o
 *fill*         0x000000004025f121        0x7 
 .rodata.__FUNCTION__.7638
                0x000000004025f128       0x17 drivers/usb/host/built-in.o
 *fill*         0x000000004025f13f        0x1 
 .rodata.__FUNCTION__.7683
                0x000000004025f140        0xd drivers/usb/host/built-in.o
 *fill*         0x000000004025f14d        0x3 
 .rodata.__FUNCTION__.7708
                0x000000004025f150        0xd drivers/usb/host/built-in.o
 *fill*         0x000000004025f15d        0x3 
 .rodata.__FUNCTION__.7873
                0x000000004025f160       0x11 drivers/usb/host/built-in.o
 *fill*         0x000000004025f171        0x7 
 .rodata.__FUNCTION__.7878
                0x000000004025f178       0x11 drivers/usb/host/built-in.o
 *fill*         0x000000004025f189        0x7 
 .rodata.__FUNCTION__.7887
                0x000000004025f190        0xf drivers/usb/host/built-in.o
 *fill*         0x000000004025f19f        0x1 
 .rodata.__FUNCTION__.7915
                0x000000004025f1a0       0x19 drivers/usb/host/built-in.o
 *fill*         0x000000004025f1b9        0x7 
 .rodata.__FUNCTION__.7919
                0x000000004025f1c0        0xc drivers/usb/host/built-in.o
 *fill*         0x000000004025f1cc        0x4 
 .rodata.__FUNCTION__.7934
                0x000000004025f1d0       0x13 drivers/usb/host/built-in.o
 *fill*         0x000000004025f1e3        0x5 
 .rodata.__FUNCTION__.7941
                0x000000004025f1e8       0x10 drivers/usb/host/built-in.o
 .rodata.__FUNCTION__.7951
                0x000000004025f1f8       0x19 drivers/usb/host/built-in.o
 *fill*         0x000000004025f211        0x7 
 .rodata.__FUNCTION__.7957
                0x000000004025f218       0x14 drivers/usb/host/built-in.o
 *fill*         0x000000004025f22c        0x4 
 .rodata.__FUNCTION__.7971
                0x000000004025f230       0x13 drivers/usb/host/built-in.o
 *fill*         0x000000004025f243        0x5 
 .rodata.__FUNCTION__.8004
                0x000000004025f248       0x1b drivers/usb/host/built-in.o
 *fill*         0x000000004025f263        0x5 
 .rodata.__FUNCTION__.8044
                0x000000004025f268       0x20 drivers/usb/host/built-in.o
 .rodata.__FUNCTION__.8744
                0x000000004025f288       0x11 drivers/usb/gadget/built-in.o
 *fill*         0x000000004025f299        0x7 
 .rodata.__func__.10623
                0x000000004025f2a0        0xc board/freescale/imx8mq_evk/built-in.o
 *fill*         0x000000004025f2ac        0x4 
 .rodata.__func__.5778
                0x000000004025f2b0        0xe common/built-in.o
 *fill*         0x000000004025f2be        0x2 
 .rodata.__func__.6089
                0x000000004025f2c0        0xf fs/built-in.o
 *fill*         0x000000004025f2cf        0x1 
 .rodata.__func__.6122
                0x000000004025f2d0       0x13 fs/built-in.o
 *fill*         0x000000004025f2e3        0x5 
 .rodata.__func__.6131
                0x000000004025f2e8       0x14 fs/built-in.o
 *fill*         0x000000004025f2fc        0x4 
 .rodata.__func__.6137
                0x000000004025f300       0x10 common/built-in.o
 .rodata.__func__.6153
                0x000000004025f310        0xb common/built-in.o
 *fill*         0x000000004025f31b        0x5 
 .rodata.__func__.6160
                0x000000004025f320        0xb common/built-in.o
 *fill*         0x000000004025f32b        0x5 
 .rodata.__func__.6291
                0x000000004025f330        0xa drivers/built-in.o
 *fill*         0x000000004025f33a        0x6 
 .rodata.__func__.6320
                0x000000004025f340        0xb drivers/built-in.o
 *fill*         0x000000004025f34b        0x5 
 .rodata.__func__.6338
                0x000000004025f350        0xa drivers/built-in.o
 *fill*         0x000000004025f35a        0x6 
 .rodata.__func__.6350
                0x000000004025f360        0xe drivers/built-in.o
 *fill*         0x000000004025f36e        0x2 
 .rodata.__func__.6429
                0x000000004025f370       0x12 drivers/built-in.o
 *fill*         0x000000004025f382        0x6 
 .rodata.__func__.6484
                0x000000004025f388       0x18 common/built-in.o
 .rodata.__func__.6538
                0x000000004025f3a0       0x1c fs/built-in.o
 *fill*         0x000000004025f3bc        0x4 
 .rodata.__func__.6662
                0x000000004025f3c0        0xc lib/built-in.o
 *fill*         0x000000004025f3cc        0x4 
 .rodata.__func__.6930
                0x000000004025f3d0        0xe drivers/built-in.o
 *fill*         0x000000004025f3de        0x2 
 .rodata.__func__.6952
                0x000000004025f3e0       0x16 cmd/built-in.o
 *fill*         0x000000004025f3f6        0x2 
 .rodata.__func__.7093
                0x000000004025f3f8       0x16 board/freescale/common/built-in.o
 *fill*         0x000000004025f40e        0x2 
 .rodata.__func__.7099
                0x000000004025f410       0x14 board/freescale/common/built-in.o
 *fill*         0x000000004025f424        0x4 
 .rodata.__func__.7106
                0x000000004025f428       0x1a board/freescale/common/built-in.o
 *fill*         0x000000004025f442        0x6 
 .rodata.__func__.7116
                0x000000004025f448       0x13 board/freescale/common/built-in.o
 *fill*         0x000000004025f45b        0x5 
 .rodata.__func__.7134
                0x000000004025f460        0xf drivers/power/pmic/built-in.o
 *fill*         0x000000004025f46f        0x1 
 .rodata.__func__.7138
                0x000000004025f470       0x11 board/freescale/common/built-in.o
 *fill*         0x000000004025f481        0x7 
 .rodata.__func__.7141
                0x000000004025f488        0xe drivers/power/pmic/built-in.o
 *fill*         0x000000004025f496        0x2 
 .rodata.__func__.7144
                0x000000004025f498       0x12 board/freescale/common/built-in.o
 *fill*         0x000000004025f4aa        0x6 
 .rodata.__func__.7167
                0x000000004025f4b0       0x14 board/freescale/common/built-in.o
 *fill*         0x000000004025f4c4        0x4 
 .rodata.__func__.7172
                0x000000004025f4c8        0xd drivers/built-in.o
 *fill*         0x000000004025f4d5        0x3 
 .rodata.__func__.7174
                0x000000004025f4d8       0x14 board/freescale/common/built-in.o
 *fill*         0x000000004025f4ec        0x4 
 .rodata.__func__.7178
                0x000000004025f4f0       0x11 drivers/built-in.o
 *fill*         0x000000004025f501        0x7 
 .rodata.__func__.7182
                0x000000004025f508       0x18 drivers/built-in.o
 .rodata.__func__.7186
                0x000000004025f520       0x18 board/freescale/common/built-in.o
 .rodata.__func__.7186
                0x000000004025f538       0x18 drivers/built-in.o
 .rodata.__func__.7190
                0x000000004025f550        0xd drivers/built-in.o
 *fill*         0x000000004025f55d        0x3 
 .rodata.__func__.7194
                0x000000004025f560       0x14 drivers/built-in.o
 *fill*         0x000000004025f574        0x4 
 .rodata.__func__.7195
                0x000000004025f578       0x19 board/freescale/common/built-in.o
 *fill*         0x000000004025f591        0x7 
 .rodata.__func__.7278
                0x000000004025f598       0x1b drivers/power/regulator/built-in.o
 *fill*         0x000000004025f5b3        0x5 
 .rodata.__func__.7279
                0x000000004025f5b8       0x19 drivers/power/regulator/built-in.o
 *fill*         0x000000004025f5d1        0x7 
 .rodata.__func__.7295
                0x000000004025f5d8       0x12 board/freescale/common/built-in.o
 *fill*         0x000000004025f5ea        0x6 
 .rodata.__func__.7307
                0x000000004025f5f0        0xa board/freescale/common/built-in.o
 *fill*         0x000000004025f5fa        0x6 
 .rodata.__func__.7471
                0x000000004025f600       0x15 drivers/mmc/built-in.o
 *fill*         0x000000004025f615        0x3 
 .rodata.__func__.7612
                0x000000004025f618        0xa drivers/mmc/built-in.o
 *fill*         0x000000004025f622        0x6 
 .rodata.__func__.7653
                0x000000004025f628       0x14 cmd/built-in.o
 *fill*         0x000000004025f63c        0x4 
 .rodata.__func__.7669
                0x000000004025f640       0x19 drivers/mmc/built-in.o
 *fill*         0x000000004025f659        0x7 
 .rodata.__func__.7698
                0x000000004025f660       0x1a drivers/mmc/built-in.o
 *fill*         0x000000004025f67a        0x6 
 .rodata.__func__.7799
                0x000000004025f680        0x9 drivers/mmc/built-in.o
 *fill*         0x000000004025f689        0x7 
 .rodata.__func__.7887
                0x000000004025f690       0x12 drivers/i2c/built-in.o
 *fill*         0x000000004025f6a2        0x6 
 .rodata.__func__.7921
                0x000000004025f6a8        0xd drivers/i2c/built-in.o
 *fill*         0x000000004025f6b5        0x3 
 .rodata.__func__.7940
                0x000000004025f6b8       0x16 drivers/mmc/built-in.o
 *fill*         0x000000004025f6ce        0x2 
 .rodata.__func__.7947
                0x000000004025f6d0        0xe arch/arm/cpu/armv8/built-in.o
 *fill*         0x000000004025f6de        0x2 
 .rodata.__func__.7971
                0x000000004025f6e0        0xd drivers/i2c/built-in.o
 *fill*         0x000000004025f6ed        0x3 
 .rodata.__func__.7978
                0x000000004025f6f0       0x18 drivers/usb/host/built-in.o
 .rodata.__func__.7982
                0x000000004025f708       0x12 drivers/i2c/built-in.o
 *fill*         0x000000004025f71a        0x6 
 .rodata.__func__.8456
                0x000000004025f720        0xc drivers/net/built-in.o
 *fill*         0x000000004025f72c        0x4 
 .rodata.__func__.8510
                0x000000004025f730       0x10 drivers/net/built-in.o
 .rodata.__func__.8881
                0x000000004025f740        0xf drivers/usb/gadget/built-in.o
 *fill*         0x000000004025f74f        0x1 
 .rodata._ctype
                0x000000004025f750      0x100 lib/built-in.o
                0x000000004025f750                _ctype
 .rodata.boot_os
                0x000000004025f850       0xc0 common/built-in.o
 .rodata.crc16_tab
                0x000000004025f910      0x200 lib/built-in.o
 .rodata.crc16_table
                0x000000004025fb10      0x200 fs/built-in.o
 .rodata.crc_table
                0x000000004025fd10      0x400 lib/built-in.o
 .rodata.ctr_data
                0x0000000040260110       0x20 drivers/usb/host/built-in.o
 .rodata.dbase.6000
                0x0000000040260130       0x40 lib/built-in.o
 .rodata.default_environment
                0x0000000040260170      0x787 common/built-in.o
                0x0000000040260170                default_environment
 *fill*         0x00000000402608f7        0x1 
 .rodata.desc_and_len_tbl
                0x00000000402608f8       0x60 cmd/built-in.o
 .rodata.dext.6001
                0x0000000040260958       0x40 lib/built-in.o
 .rodata.digits.5655
                0x0000000040260998       0x10 lib/built-in.o
 .rodata.dirletter.7176
                0x00000000402609a8        0x4 drivers/usb/gadget/built-in.o
 *fill*         0x00000000402609ac        0x4 
 .rodata.displays
                0x00000000402609b0       0x60 board/freescale/imx8mq_evk/built-in.o
                0x00000000402609b0                displays
 .rodata.distfix
                0x0000000040260a10       0x80 lib/built-in.o
 .rodata.dwc3_gadget_ep0_ops
                0x0000000040260a90       0x50 drivers/usb/dwc3/built-in.o
 .rodata.dwc3_gadget_ep_ops
                0x0000000040260ae0       0x50 drivers/usb/dwc3/built-in.o
 .rodata.dwc3_gadget_ops
                0x0000000040260b30       0x50 drivers/usb/dwc3/built-in.o
 .rodata.efi_block_io_guid
                0x0000000040260b80       0x10 lib/built-in.o
 .rodata.efi_boot_services
                0x0000000040260b90      0x178 lib/built-in.o
 .rodata.efi_con_in
                0x0000000040260d08       0x18 lib/built-in.o
                0x0000000040260d08                efi_con_in
 .rodata.efi_con_out
                0x0000000040260d20       0x50 lib/built-in.o
                0x0000000040260d20                efi_con_out
 .rodata.efi_console_control
                0x0000000040260d70       0x18 lib/built-in.o
                0x0000000040260d70                efi_console_control
 .rodata.efi_guid_console_control
                0x0000000040260d88       0x10 lib/built-in.o
                0x0000000040260d88                efi_guid_console_control
 .rodata.efi_guid_device_path
                0x0000000040260d98       0x10 lib/built-in.o
                0x0000000040260d98                efi_guid_device_path
 .rodata.efi_guid_loaded_image
                0x0000000040260da8       0x10 lib/built-in.o
                0x0000000040260da8                efi_guid_loaded_image
 .rodata.efi_net_guid
                0x0000000040260db8       0x10 lib/built-in.o
 .rodata.efi_pxe_guid
                0x0000000040260dc8       0x10 lib/built-in.o
 .rodata.efi_runtime_detach_list
                0x0000000040260dd8       0x70 lib/built-in.o
 .rodata.env_flags_varaccess_mask
                0x0000000040260e48       0x10 common/built-in.o
 .rodata.env_flags_varaccess_rep
                0x0000000040260e58        0x5 common/built-in.o
 *fill*         0x0000000040260e5d        0x3 
 .rodata.env_flags_vartype_rep
                0x0000000040260e60        0x7 common/built-in.o
 *fill*         0x0000000040260e67        0x1 
 .rodata.erase_seq
                0x0000000040260e68        0x4 common/built-in.o
 *fill*         0x0000000040260e6c        0x4 
 .rodata.esdhc_ops
                0x0000000040260e70       0x48 drivers/mmc/built-in.o
 .rodata.ext_csd_bus_width
                0x0000000040260eb8       0x3c drivers/mmc/built-in.o
 *fill*         0x0000000040260ef4        0x4 
 .rodata.fbase  0x0000000040260ef8       0x10 drivers/mmc/built-in.o
 .rodata.fdt_errtable
                0x0000000040260f08       0x90 lib/built-in.o
 .rodata.fec1_rst_pads
                0x0000000040260f98        0x8 board/freescale/imx8mq_evk/built-in.o
 .rodata.fecmxc_ids
                0x0000000040260fa0       0x50 drivers/net/built-in.o
 .rodata.fecmxc_ops
                0x0000000040260ff0       0x38 drivers/net/built-in.o
 .rodata.fixed_regulator_ids
                0x0000000040261028       0x20 drivers/power/regulator/built-in.o
 .rodata.fixed_regulator_ops
                0x0000000040261048       0x40 drivers/power/regulator/built-in.o
 .rodata.freqs.7315
                0x0000000040261088       0x38 drivers/mmc/built-in.o
 .rodata.fsg_string_interface
                0x00000000402610c0        0xd drivers/usb/gadget/built-in.o
 *fill*         0x00000000402610cd        0x3 
 .rodata.fsl_esdhc_ids
                0x00000000402610d0       0x90 drivers/mmc/built-in.o
 .rodata.generic_simple_bus_ids
                0x0000000040261160       0x30 drivers/built-in.o
 .rodata.gpio_function
                0x0000000040261190       0x28 drivers/gpio/built-in.o
 .rodata.gpio_mxc_ops
                0x00000000402611b8       0x50 drivers/gpio/built-in.o
 .rodata.gpio_regulator_ids
                0x0000000040261208       0x20 drivers/power/regulator/built-in.o
 .rodata.gpio_regulator_ops
                0x0000000040261228       0x40 drivers/power/regulator/built-in.o
 .rodata.hex_asc
                0x0000000040261268       0x11 lib/built-in.o
 *fill*         0x0000000040261279        0x7 
 .rodata.i2c_clk_div
                0x0000000040261280       0xc8 drivers/i2c/built-in.o
 .rodata.imx8m_pinctrl_match
                0x0000000040261348       0x20 drivers/built-in.o
 .rodata.imx_pinctrl_ops
                0x0000000040261368       0x88 drivers/built-in.o
                0x0000000040261368                imx_pinctrl_ops
 .rodata.init_sequence_f
                0x00000000402613f0      0x140 common/built-in.o
 .rodata.lbase.5998
                0x0000000040261530       0x3e lib/built-in.o
 *fill*         0x000000004026156e        0x2 
 .rodata.lenfix
                0x0000000040261570      0x800 lib/built-in.o
 .rodata.lext.5999
                0x0000000040261d70       0x3e lib/built-in.o
 *fill*         0x0000000040261dae        0x2 
 .rodata.manufacturer
                0x0000000040261db0        0x4 drivers/usb/gadget/built-in.o
 *fill*         0x0000000040261db4        0x4 
 .rodata.mmc_modes_by_pref
                0x0000000040261db8       0x54 drivers/mmc/built-in.o
 *fill*         0x0000000040261e0c        0x4 
 .rodata.multipliers
                0x0000000040261e10       0x10 drivers/mmc/built-in.o
 .rodata.mxc_gpio_ids
                0x0000000040261e20       0x20 drivers/gpio/built-in.o
 .rodata.mxc_i2c_ids
                0x0000000040261e40       0x30 drivers/i2c/built-in.o
 .rodata.mxc_i2c_ops
                0x0000000040261e70       0x30 drivers/i2c/built-in.o
 .rodata.names.5869
                0x0000000040261ea0        0x6 lib/built-in.o
 *fill*         0x0000000040261ea6        0x2 
 .rodata.names.7310
                0x0000000040261ea8       0x70 drivers/mmc/built-in.o
 .rodata.net_bcast_ethaddr
                0x0000000040261f18        0x6 net/built-in.o
                0x0000000040261f18                net_bcast_ethaddr
 *fill*         0x0000000040261f1e        0x2 
 .rodata.nxp_tmu_ids
                0x0000000040261f20       0x20 drivers/built-in.o
 .rodata.nxp_tmu_ops
                0x0000000040261f40        0x8 drivers/built-in.o
 .rodata.op_adv
                0x0000000040261f48      0x180 cmd/built-in.o
                0x0000000040261f48                op_adv
 .rodata.op_table
                0x00000000402620c8       0xd0 cmd/built-in.o
 .rodata.order.6094
                0x0000000040262198       0x26 lib/built-in.o
 *fill*         0x00000000402621be        0x2 
 .rodata.pfuze100_ids
                0x00000000402621c0       0x40 drivers/power/pmic/built-in.o
 .rodata.pfuze100_regulator_ops
                0x0000000040262200       0x40 drivers/power/regulator/built-in.o
 .rodata.phy_interface_strings
                0x0000000040262240       0x70 drivers/net/phy/built-in.o
 .rodata.pmic_children_info
                0x00000000402622b0       0x30 drivers/power/pmic/built-in.o
 .rodata.product
                0x00000000402622e0       0x14 drivers/usb/gadget/built-in.o
 *fill*         0x00000000402622f4        0x4 
 .rodata.qspi_pads
                0x00000000402622f8       0x30 board/freescale/imx8mq_evk/built-in.o
 .rodata.reg_0_5_desc_tbl
                0x0000000040262328       0x60 cmd/built-in.o
 .rodata.reg_0_desc_tbl
                0x0000000040262388       0xa0 cmd/built-in.o
 .rodata.reg_1_desc_tbl
                0x0000000040262428      0x100 cmd/built-in.o
 .rodata.reg_2_desc_tbl
                0x0000000040262528       0x10 cmd/built-in.o
 .rodata.reg_3_desc_tbl
                0x0000000040262538       0x30 cmd/built-in.o
 .rodata.reg_4_desc_tbl
                0x0000000040262568       0xc0 cmd/built-in.o
 .rodata.reg_5_desc_tbl
                0x0000000040262628       0xc0 cmd/built-in.o
 .rodata.root_info
                0x00000000402626e8       0x10 drivers/built-in.o
 .rodata.sd_au_size
                0x00000000402626f8       0x40 drivers/mmc/built-in.o
 .rodata.sd_modes_by_pref
                0x0000000040262738       0x54 drivers/mmc/built-in.o
 *fill*         0x000000004026278c        0x4 
 .rodata.sha1_padding
                0x0000000040262790       0x40 lib/built-in.o
 .rodata.smbios_guid
                0x00000000402627d0       0x10 lib/built-in.o
 .rodata.smbios_write_funcs
                0x00000000402627e0       0x38 lib/built-in.o
 .rodata.spi_flash_ids
                0x0000000040262818      0x380 drivers/mtd/spi/built-in.o
                0x0000000040262818                spi_flash_ids
 .rodata.tab_seq
                0x0000000040262b98        0x9 common/built-in.o
 *fill*         0x0000000040262ba1        0x7 
 .rodata.tuning_blk_pattern_4bit
                0x0000000040262ba8       0x40 drivers/mmc/built-in.o
 .rodata.tuning_blk_pattern_8bit
                0x0000000040262be8       0x80 drivers/mmc/built-in.o
 .rodata.uart_pads
                0x0000000040262c68       0x10 board/freescale/imx8mq_evk/built-in.o
 .rodata.uimage_arch
                0x0000000040262c78      0x270 common/built-in.o
 .rodata.uimage_comp
                0x0000000040262ee8       0xa8 common/built-in.o
 .rodata.uimage_os
                0x0000000040262f90       0xf0 common/built-in.o
 .rodata.uimage_type
                0x0000000040263080      0x300 common/built-in.o
 .rodata.us_direction
                0x0000000040263380       0x20 common/built-in.o
 .rodata.vendor_id.7027
                0x00000000402633a0        0x9 drivers/usb/gadget/built-in.o
 *fill*         0x00000000402633a9        0x7 
 .rodata.version_string
                0x00000000402633b0       0x37 cmd/built-in.o
                0x00000000402633b0                version_string
 *fill*         0x00000000402633e7        0x1 
 .rodata.vic_table
                0x00000000402633e8      0x21c drivers/built-in.o
                0x00000000402633e8                vic_table
 *fill*         0x0000000040263604        0x4 
 .rodata.video_font_draw_table15
                0x0000000040263608       0x10 drivers/built-in.o
 .rodata.video_font_draw_table16
                0x0000000040263618       0x10 drivers/built-in.o
 .rodata.video_font_draw_table24
                0x0000000040263628       0xc0 drivers/built-in.o
 .rodata.video_font_draw_table32
                0x00000000402636e8      0x100 drivers/built-in.o
 .rodata.video_font_draw_table8
                0x00000000402637e8       0x40 drivers/built-in.o
 .rodata.wdog_pads
                0x0000000040263828        0x8 board/freescale/imx8mq_evk/built-in.o
 .rodata.binary_test
                0x0000000040263830        0xe cmd/built-in.o
 *fill*         0x000000004026383e        0x2 
 .rodata.cfb_video_putc
                0x0000000040263840        0x7 drivers/built-in.o
 *fill*         0x0000000040263847        0x1 
 .rodata.cli_readline_into_buffer
                0x0000000040263848       0x40 common/built-in.o
 .rodata.composite_setup
                0x0000000040263888       0x2a drivers/usb/gadget/built-in.o
 *fill*         0x00000000402638b2        0x2 
 .rodata.decode_sscg_pll
                0x00000000402638b4       0x17 arch/arm/cpu/armv8/built-in.o
 *fill*         0x00000000402638cb        0x1 
 .rodata.dev_print
                0x00000000402638cc       0x14 disk/built-in.o
 .rodata.display_rle8_bitmap
                0x00000000402638e0        0x4 drivers/built-in.o
 .rodata.do_fdt
                0x00000000402638e4       0x12 cmd/built-in.o
 *fill*         0x00000000402638f6        0x2 
 .rodata.do_itest
                0x00000000402638f8        0x7 cmd/built-in.o
 *fill*         0x00000000402638ff        0x1 
 .rodata.do_test
                0x0000000040263900        0xd cmd/built-in.o
 *fill*         0x000000004026390d        0x3 
 .rodata.draw_bitmap
                0x0000000040263910        0x4 drivers/built-in.o
 .rodata.drv_video_init
                0x0000000040263914        0x6 drivers/built-in.o
 *fill*         0x000000004026391a        0x2 
 .rodata.dwc3_gadget_uboot_handle_interrupt
                0x000000004026391c       0x15 drivers/usb/dwc3/built-in.o
 *fill*         0x0000000040263931        0x3 
 .rodata.efi_load_pe
                0x0000000040263934        0xb lib/built-in.o
 *fill*         0x000000004026393f        0x1 
 .rodata.env_flags_validate
                0x0000000040263940        0x6 common/built-in.o
 *fill*         0x0000000040263946        0x2 
 .rodata.esdhc_set_ios
                0x0000000040263948        0xe drivers/mmc/built-in.o
 *fill*         0x0000000040263956        0x2 
 .rodata.fdt_next_tag
                0x0000000040263958        0x9 lib/built-in.o
 *fill*         0x0000000040263961        0x3 
 .rodata.file_fat_detectfs
                0x0000000040263964        0x8 fs/built-in.o
 .rodata.fsg_main_thread
                0x000000004026396c        0x6 drivers/usb/gadget/built-in.o
 *fill*         0x0000000040263972        0x2 
 .rodata.get_boot_device
                0x0000000040263974        0xf arch/arm/cpu/armv8/built-in.o
 *fill*         0x0000000040263983        0x1 
 .rodata.get_clk_root_target
                0x0000000040263984        0x7 arch/arm/cpu/armv8/built-in.o
 *fill*         0x000000004026398b        0x1 
 .rodata.inflate
                0x000000004026398c       0x3a lib/built-in.o
 *fill*         0x00000000402639c6        0x2 
 .rodata.internal_vreadmsg
                0x00000000402639c8        0x4 drivers/built-in.o
 .rodata.load_serial
                0x00000000402639cc        0x9 cmd/built-in.o
 *fill*         0x00000000402639d5        0x3 
 .rodata.match  0x00000000402639d8       0x22 lib/built-in.o
 *fill*         0x00000000402639fa        0x2 
 .rodata.mmc_init
                0x00000000402639fc       0x28 drivers/mmc/built-in.o
 .rodata.mmc_set_capacity
                0x0000000040263a24        0x8 drivers/mmc/built-in.o
 .rodata.mmc_set_card_speed
                0x0000000040263a2c        0xe drivers/mmc/built-in.o
 *fill*         0x0000000040263a3a        0x2 
 .rodata.net_loop
                0x0000000040263a3c       0x18 net/built-in.o
 .rodata.nfs_handler
                0x0000000040263a54        0x7 net/built-in.o
 *fill*         0x0000000040263a5b        0x1 
 .rodata.nfs_send
                0x0000000040263a5c        0x7 net/built-in.o
 *fill*         0x0000000040263a63        0x1 
 .rodata.phy_cfg_t28hpc
                0x0000000040263a64       0x36 drivers/built-in.o
 *fill*         0x0000000040263a9a        0x2 
 .rodata.plot_logo_or_black
                0x0000000040263a9c        0x6 drivers/built-in.o
 *fill*         0x0000000040263aa2        0x2 
 .rodata.prepare_ring
                0x0000000040263aa4        0x5 drivers/usb/host/built-in.o
 *fill*         0x0000000040263aa9        0x3 
 .rodata.record_transfer_result
                0x0000000040263aac        0xd drivers/usb/host/built-in.o
 *fill*         0x0000000040263ab9        0x3 
 .rodata.sleep_thread.isra.17
                0x0000000040263abc        0x8 drivers/usb/gadget/built-in.o
 .rodata.srec_decode
                0x0000000040263ac4        0xa common/built-in.o
 *fill*         0x0000000040263ace        0x2 
 .rodata.submit_control_msg
                0x0000000040263ad0        0x5 drivers/usb/host/built-in.o
 *fill*         0x0000000040263ad5        0x3 
 .rodata.tcpc_init
                0x0000000040263ad8        0x8 board/freescale/common/built-in.o
 .rodata.tftp_send
                0x0000000040263ae0        0x7 net/built-in.o
 *fill*         0x0000000040263ae7        0x1 
 .rodata.usb_display_class_sub
                0x0000000040263ae8        0x6 cmd/built-in.o
 *fill*         0x0000000040263aee        0x2 
 .rodata.video_display_bitmap
                0x0000000040263af0        0xd drivers/built-in.o
 *fill*         0x0000000040263afd        0x3 
 .rodata.video_drawchars
                0x0000000040263b00        0xc drivers/built-in.o
 .rodata.xhci_setup_addressable_virt_dev
                0x0000000040263b0c        0xd drivers/usb/host/built-in.o
 .rodata        0x0000000040263b19      0x103 common/built-in.o
 .rodata        0x0000000040263c1c       0x3a drivers/usb/host/built-in.o
 .rodata        0x0000000040263c56        0x7 net/built-in.o
 .rodata.CDN_API_HDMITX_DDC_WRITE.str1.1
                0x0000000040263c5d        0x9 drivers/built-in.o
 .rodata.__dwc3_ep0_do_control_data.str1.1
                0x0000000040263c66       0x17 drivers/usb/dwc3/built-in.o
                                         0x2e (size before relaxing)
 .rodata.__dwc3_gadget_ep_set_halt.str1.1
                0x0000000040263c7d       0x53 drivers/usb/dwc3/built-in.o
 .rodata._do_env_set.isra.0.str1.1
                0x0000000040263cd0       0x7c cmd/built-in.o
 .rodata._do_help.str1.1
                0x0000000040263d4c       0x5f common/built-in.o
 .rodata._gpio_request_by_name_nodev.str1.1
                0x0000000040263dab       0x1a drivers/gpio/built-in.o
 .rodata._xhci_alloc_device.str1.1
                0x0000000040263dc5       0x34 drivers/usb/host/built-in.o
 .rodata.afe_read.str1.1
                0x0000000040263df9       0x3c drivers/built-in.o
 .rodata.afe_write.str1.1
                0x0000000040263e35       0x45 drivers/built-in.o
 .rodata.announce_dram_init.str1.1
                0x0000000040263e7a        0x8 common/built-in.o
 .rodata.arch_misc_init.str1.1
                0x0000000040263e82       0x39 arch/arm/cpu/armv8/built-in.o
 .rodata.arp_receive.str1.1
                0x0000000040263ebb       0x14 net/built-in.o
 .rodata.arp_request.str1.1
                0x0000000040263ecf       0x2a net/built-in.o
 .rodata.arp_timeout_check.str1.1
                0x0000000040263ef9       0x2b net/built-in.o
 .rodata.autoboot_command.str1.1
                0x0000000040263f24       0x31 common/built-in.o
 .rodata.b_addqchr.str1.1
                0x0000000040263f55        0x5 common/built-in.o
 .rodata.binary_test.str1.1
                0x0000000040263f5a       0x17 cmd/built-in.o
 .rodata.blk_get_device_by_str.str1.1
                0x0000000040263f71       0x6a disk/built-in.o
 .rodata.blk_get_device_part_str.str1.1
                0x0000000040263fdb      0x112 disk/built-in.o
                                        0x11b (size before relaxing)
 .rodata.board_init.str1.1
                0x00000000402640ed       0x31 board/freescale/imx8mq_evk/built-in.o
 .rodata.board_late_mmc_env_init.str1.1
                0x000000004026411e       0x48 board/freescale/common/built-in.o
 .rodata.board_video_skip.str1.1
                0x0000000040264166       0x91 arch/arm/imx-common/built-in.o
 .rodata.boot_fdt_add_mem_rsv_regions.str1.1
                0x00000000402641f7       0x35 common/built-in.o
 .rodata.boot_get_fdt.str1.1
                0x000000004026422c      0x1b5 common/built-in.o
                                        0x1d4 (size before relaxing)
 .rodata.boot_get_loadable.str1.1
                0x00000000402643e1       0x3e common/built-in.o
 .rodata.boot_get_ramdisk.str1.1
                0x000000004026441f       0xb7 common/built-in.o
                                        0x115 (size before relaxing)
 .rodata.boot_get_setup_fit.str1.1
                0x00000000402644d6       0xe8 common/built-in.o
                                          0x6 (size before relaxing)
 .rodata.boot_jump_linux.str1.1
                0x00000000402644d6       0x30 arch/arm/lib/built-in.o
                                         0x31 (size before relaxing)
 .rodata.boot_prep_linux.str1.1
                0x0000000040264506       0x51 arch/arm/lib/built-in.o
                                         0x5a (size before relaxing)
 .rodata.boot_prep_vxworks.str1.1
                0x0000000040264557       0x2a arch/arm/lib/built-in.o
 .rodata.boot_ramdisk_high.str1.1
                0x0000000040264581       0x54 common/built-in.o
 .rodata.boot_relocate_fdt.str1.1
                0x00000000402645d5       0xcf common/built-in.o
                                         0xd3 (size before relaxing)
 .rodata.bootdelay_process.str1.1
                0x00000000402646a4       0xaf common/built-in.o
                                         0xb7 (size before relaxing)
 .rodata.bootm_decomp_image.str1.1
                0x0000000040264753       0x99 common/built-in.o
                                         0xc0 (size before relaxing)
 .rodata.bootm_find_images.str1.1
                0x00000000402647ec       0x6c common/built-in.o
 .rodata.bootm_maybe_autostart.str1.1
                0x0000000040264858       0x37 cmd/built-in.o
                                         0x3b (size before relaxing)
 .rodata.bootp_request.str1.1
                0x000000004026488f       0x25 net/built-in.o
 .rodata.bootp_timeout_handler.str1.1
                0x00000000402648b4       0x26 net/built-in.o
 .rodata.calculate_hash.str1.1
                0x00000000402648da        0x4 common/built-in.o
                                         0x16 (size before relaxing)
 .rodata.check_and_invalidate_dcache_range.isra.4.str1.1
                0x00000000402648de       0x1f drivers/mmc/built-in.o
 .rodata.check_command.isra.18.str1.1
                0x00000000402648fd        0x9 drivers/usb/gadget/built-in.o
 .rodata.check_reserved.str1.1
                0x0000000040264906       0x27 drivers/gpio/built-in.o
                                         0x28 (size before relaxing)
 .rodata.cli_process_fdt.str1.1
                0x000000004026492d        0xb common/built-in.o
                                         0x13 (size before relaxing)
 .rodata.cli_readline_into_buffer.str1.1
                0x0000000040264938        0x4 common/built-in.o
                                          0x8 (size before relaxing)
 .rodata.cli_secure_boot_cmd.str1.1
                0x000000004026493c       0x50 common/built-in.o
 .rodata.cmd_auto_complete.str1.1
                0x000000004026498c       0x5f common/built-in.o
                                         0x15 (size before relaxing)
 .rodata.cmd_process.str1.1
                0x000000004026498c       0x3f common/built-in.o
 .rodata.cmd_process_error.str1.1
                0x00000000402649cb       0x1f common/built-in.o
 .rodata.cmd_usage.str1.1
                0x00000000402649ea       0x36 common/built-in.o
 .rodata.common_diskboot.str1.1
                0x0000000040264a20       0xbf cmd/built-in.o
 .rodata.compile.str1.1
                0x0000000040264adf       0x4a lib/built-in.o
 .rodata.composite_unbind.str1.1
                0x0000000040264b29       0x1f drivers/usb/gadget/built-in.o
                                         0x41 (size before relaxing)
 .rodata.confirm_yesno.str1.1
                0x0000000040264b48       0x10 common/built-in.o
 .rodata.console_init_r.str1.1
                0x0000000040264b58        0x7 common/built-in.o
 .rodata.constraint.str1.1
                0x0000000040264b58       0x14 cmd/built-in.o
                                         0x23 (size before relaxing)
 .rodata.cread_add_char.str1.1
                0x0000000040264b6c        0x5 common/built-in.o
 .rodata.create_table.str1.1
                0x0000000040264b71       0x62 arch/arm/cpu/armv8/built-in.o
 .rodata.curr_dev_and_platdata.str1.1
                0x0000000040264bd3       0x9b cmd/built-in.o
 .rodata.decode_frac_pll.str1.1
                0x0000000040264c6e        0xf arch/arm/cpu/armv8/built-in.o
 .rodata.dev_get_addr_index.str1.1
                0x0000000040264c7d        0x4 drivers/built-in.o
 .rodata.dev_get_platdata.str1.1
                0x0000000040264c7d       0x11 drivers/built-in.o
 .rodata.dev_print.str1.1
                0x0000000040264c8e      0x14d disk/built-in.o
                                        0x15e (size before relaxing)
 .rodata.device_bind_common.isra.0.str1.1
                0x0000000040264ddb       0x5b drivers/built-in.o
 .rodata.device_probe.str1.1
                0x0000000040264e36       0x30 drivers/built-in.o
                                         0x38 (size before relaxing)
 .rodata.device_remove.str1.1
                0x0000000040264e66       0x98 drivers/built-in.o
 .rodata.devm_kfree.str1.1
                0x0000000040264efe       0x17 drivers/built-in.o
 .rodata.devres_free.str1.1
                0x0000000040264f15       0x38 drivers/built-in.o
 .rodata.dhcp_extended.str1.1
                0x0000000040264f4d       0x22 net/built-in.o
 .rodata.dhcp_handler.str1.1
                0x0000000040264f6f       0x41 net/built-in.o
                                         0x4a (size before relaxing)
 .rodata.dhcp_process_options.str1.1
                0x0000000040264fb0       0x78 net/built-in.o
 .rodata.display_options.str1.1
                0x0000000040265028        0x7 lib/built-in.o
 .rodata.display_rle8_bitmap.str1.1
                0x000000004026502f       0x65 drivers/built-in.o
 .rodata.dm_dump_all.str1.1
                0x0000000040265094       0x1c drivers/built-in.o
                                         0x46 (size before relaxing)
 .rodata.dm_dump_uclass.str1.1
                0x00000000402650b0       0x32 drivers/built-in.o
                                         0x34 (size before relaxing)
 .rodata.dm_gpio_get_value.str1.1
                0x00000000402650e2        0xa drivers/gpio/built-in.o
 .rodata.dm_gpio_set_dir_flags.str1.1
                0x00000000402650ec        0x8 drivers/gpio/built-in.o
 .rodata.dm_gpio_set_value.str1.1
                0x00000000402650f4        0xa drivers/gpio/built-in.o
 .rodata.dm_init.str1.1
                0x00000000402650fe       0x25 drivers/built-in.o
 .rodata.dm_root.str1.1
                0x0000000040265123       0x25 drivers/built-in.o
 .rodata.dm_scan_fdt_node.str1.1
                0x0000000040265148       0x31 drivers/built-in.o
 .rodata.dm_scan_platdata.str1.1
                0x0000000040265179       0x1d drivers/built-in.o
 .rodata.do_bad_error.str1.1
                0x0000000040265196       0x29 arch/arm/lib/built-in.o
 .rodata.do_bad_fiq.str1.1
                0x00000000402651bf       0x27 arch/arm/lib/built-in.o
 .rodata.do_bad_irq.str1.1
                0x00000000402651e6       0x27 arch/arm/lib/built-in.o
 .rodata.do_bad_sync.str1.1
                0x000000004026520d       0x48 arch/arm/lib/built-in.o
 .rodata.do_bdinfo.str1.1
                0x0000000040265255       0x9f cmd/built-in.o
 .rodata.do_bootaux.str1.1
                0x00000000402652f4       0x4c arch/arm/imx-common/built-in.o
 .rodata.do_bootd.str1.1
                0x0000000040265340        0x8 cmd/built-in.o
 .rodata.do_bootefi.str1.1
                0x0000000040265348       0x4d cmd/built-in.o
 .rodata.do_bootefi_exec.str1.1
                0x0000000040265395       0x59 cmd/built-in.o
 .rodata.do_bootelf.str1.1
                0x00000000402653ee       0x52 cmd/built-in.o
                                         0x5c (size before relaxing)
 .rodata.do_booti.str1.1
                0x0000000040265440       0x4c cmd/built-in.o
 .rodata.do_bootm.str1.1
                0x000000004026548c       0x2a cmd/built-in.o
 .rodata.do_bootm_plan9.str1.1
                0x00000000402654b6       0x43 common/built-in.o
                                         0x4c (size before relaxing)
 .rodata.do_bootm_qnxelf.str1.1
                0x00000000402654f9        0x4 common/built-in.o
 .rodata.do_bootm_rtems.str1.1
                0x00000000402654f9       0x39 common/built-in.o
 .rodata.do_bootm_standalone.str1.1
                0x0000000040265532       0x16 common/built-in.o
 .rodata.do_bootm_states.str1.1
                0x0000000040265532      0x287 common/built-in.o
                                        0x2ff (size before relaxing)
 .rodata.do_bootvx.str1.1
                0x00000000402657b9      0x1c5 cmd/built-in.o
                                        0x1d0 (size before relaxing)
 .rodata.do_bootvx_fdt.str1.1
                0x000000004026597e       0x57 common/built-in.o
                                         0x75 (size before relaxing)
 .rodata.do_coninfo.str1.1
                0x00000000402659d5       0x2c cmd/built-in.o
                                         0x30 (size before relaxing)
 .rodata.do_current.str1.1
                0x0000000040265a01       0x84 cmd/built-in.o
 .rodata.do_dcache.str1.1
                0x0000000040265a85       0x21 cmd/built-in.o
 .rodata.do_dev.str1.1
                0x0000000040265aa6       0xa9 cmd/built-in.o
 .rodata.do_disable.str1.1
                0x0000000040265b4f       0x20 cmd/built-in.o
 .rodata.do_dump.str1.1
                0x0000000040265b6f       0x70 cmd/built-in.o
                                         0x72 (size before relaxing)
 .rodata.do_echo.str1.1
                0x0000000040265bdf        0x3 cmd/built-in.o
 .rodata.do_enable.str1.1
                0x0000000040265be2       0x1f cmd/built-in.o
 .rodata.do_env_default.str1.1
                0x0000000040265c01       0x25 cmd/built-in.o
 .rodata.do_env_edit.part.3.str1.1
                0x0000000040265c26        0x7 cmd/built-in.o
                                          0xa (size before relaxing)
 .rodata.do_env_print.str1.1
                0x0000000040265c2d       0x3d cmd/built-in.o
 .rodata.do_env_save.str1.1
                0x0000000040265c6a       0x1d cmd/built-in.o
 .rodata.do_error.str1.1
                0x0000000040265c87       0x48 arch/arm/lib/built-in.o
                                         0x1d (size before relaxing)
 .rodata.do_fat_fsinfo.str1.1
                0x0000000040265c87       0x56 cmd/built-in.o
 .rodata.do_fat_read_at.str1.1
                0x0000000040265cdd       0x82 fs/built-in.o
                                         0x83 (size before relaxing)
 .rodata.do_fdt.str1.1
                0x0000000040265d5f      0x4cb cmd/built-in.o
                                        0x4f5 (size before relaxing)
 .rodata.do_fiq.str1.1
                0x000000004026622a       0x48 arch/arm/lib/built-in.o
                                         0x1b (size before relaxing)
 .rodata.do_fixup_by_path.str1.1
                0x000000004026622a       0x29 common/built-in.o
 .rodata.do_fuse.str1.1
                0x000000004026622a      0x198 cmd/built-in.o
                                        0x1a4 (size before relaxing)
 .rodata.do_go.str1.1
                0x00000000402663c2       0x4f cmd/built-in.o
 .rodata.do_gpio.str1.1
                0x0000000040266411       0xc4 cmd/built-in.o
                                         0xd2 (size before relaxing)
 .rodata.do_hdp.str1.1
                0x00000000402664d5       0x3b drivers/built-in.o
                                         0x40 (size before relaxing)
 .rodata.do_i2c_bus_num.str1.1
                0x0000000040266510       0x48 cmd/built-in.o
 .rodata.do_i2c_bus_speed.str1.1
                0x0000000040266558       0x53 cmd/built-in.o
 .rodata.do_i2c_crc.str1.1
                0x00000000402665ab       0x1f cmd/built-in.o
                                         0x26 (size before relaxing)
 .rodata.do_i2c_md.str1.1
                0x00000000402665ca        0xc cmd/built-in.o
                                         0x16 (size before relaxing)
 .rodata.do_i2c_olen.str1.1
                0x00000000402665d6       0x1f cmd/built-in.o
                                         0x23 (size before relaxing)
 .rodata.do_i2c_probe.str1.1
                0x00000000402665f5       0x1c cmd/built-in.o
 .rodata.do_i2c_reset.str1.1
                0x0000000040266611       0x24 cmd/built-in.o
 .rodata.do_i2c_show_bus.str1.1
                0x0000000040266635       0x18 cmd/built-in.o
 .rodata.do_i2c_write.str1.1
                0x000000004026664d        0x3 cmd/built-in.o
 .rodata.do_icache.str1.1
                0x0000000040266650       0x19 cmd/built-in.o
                                         0x20 (size before relaxing)
 .rodata.do_imgextract.str1.1
                0x0000000040266669      0x1af cmd/built-in.o
                                        0x296 (size before relaxing)
 .rodata.do_info.str1.1
                0x0000000040266818       0xee cmd/built-in.o
                                         0xf9 (size before relaxing)
 .rodata.do_irq.str1.1
                0x0000000040266906       0x48 arch/arm/lib/built-in.o
                                         0x1b (size before relaxing)
 .rodata.do_itest.str1.1
                0x0000000040266906       0x1e cmd/built-in.o
 .rodata.do_list.str1.1
                0x0000000040266924       0x80 cmd/built-in.o
                                         0x8c (size before relaxing)
 .rodata.do_load.str1.1
                0x00000000402669a4       0x39 fs/built-in.o
                                         0x5b (size before relaxing)
 .rodata.do_load_serial.str1.1
                0x00000000402669dd       0x6b cmd/built-in.o
 .rodata.do_load_serial_bin.str1.1
                0x0000000040266a48      0x159 cmd/built-in.o
 .rodata.do_ls.str1.1
                0x0000000040266ba1        0x2 fs/built-in.o
 .rodata.do_mdio.str1.1
                0x0000000040266ba1       0x65 cmd/built-in.o
 .rodata.do_mem_base.str1.1
                0x0000000040266c06       0x17 cmd/built-in.o
 .rodata.do_mem_cmp.str1.1
                0x0000000040266c1d       0x6a cmd/built-in.o
                                         0x6f (size before relaxing)
 .rodata.do_mem_cp.str1.1
                0x0000000040266c87       0x11 cmd/built-in.o
 .rodata.do_mii.str1.1
                0x0000000040266c98      0x290 cmd/built-in.o
                                        0x2b0 (size before relaxing)
 .rodata.do_mmc_boot_resize.str1.1
                0x0000000040266f28       0x82 cmd/built-in.o
 .rodata.do_mmc_bootbus.str1.1
                0x0000000040266faa       0x24 cmd/built-in.o
 .rodata.do_mmc_dev.str1.1
                0x0000000040266fce       0x89 cmd/built-in.o
 .rodata.do_mmc_erase.str1.1
                0x0000000040267057       0x67 cmd/built-in.o
 .rodata.do_mmc_hwpartition.str1.1
                0x00000000402670be      0x126 cmd/built-in.o
                                        0x142 (size before relaxing)
 .rodata.do_mmc_part.str1.1
                0x00000000402671e4       0x15 cmd/built-in.o
 .rodata.do_mmc_partconf.str1.1
                0x00000000402671f9       0x26 cmd/built-in.o
 .rodata.do_mmc_read.str1.1
                0x000000004026721f       0x43 cmd/built-in.o
 .rodata.do_mmc_rst_func.str1.1
                0x0000000040267262       0x40 cmd/built-in.o
 .rodata.do_mmc_setdsr.str1.1
                0x00000000402672a2       0x1d cmd/built-in.o
 .rodata.do_mmc_write.str1.1
                0x00000000402672bf       0x47 cmd/built-in.o
 .rodata.do_mmcinfo.str1.1
                0x0000000040267306      0x111 cmd/built-in.o
                                        0x163 (size before relaxing)
 .rodata.do_mmcops.str1.1
                0x0000000040267417       0x19 cmd/built-in.o
 .rodata.do_mode.str1.1
                0x0000000040267430       0x6b cmd/built-in.o
 .rodata.do_mscale_showclocks.str1.1
                0x000000004026749b      0x234 arch/arm/cpu/armv8/built-in.o
 .rodata.do_ping.str1.1
                0x00000000402676cf       0x35 cmd/built-in.o
 .rodata.do_read.str1.1
                0x0000000040267704       0x30 cmd/built-in.o
 .rodata.do_reset.str1.1
                0x0000000040267734        0xf arch/arm/lib/built-in.o
 .rodata.do_run.str1.1
                0x0000000040267743       0x1c common/built-in.o
 .rodata.do_save.str1.1
                0x0000000040267743       0x1d fs/built-in.o
 .rodata.do_setexpr.str1.1
                0x0000000040267760       0x11 cmd/built-in.o
                                         0x15 (size before relaxing)
 .rodata.do_showvar.str1.1
                0x0000000040267771        0xc common/built-in.o
                                         0x2f (size before relaxing)
 .rodata.do_size.str1.1
                0x000000004026777d        0x9 fs/built-in.o
 .rodata.do_source.str1.1
                0x000000004026777d       0x1e cmd/built-in.o
 .rodata.do_spi_flash.str1.1
                0x000000004026779b      0x1c1 cmd/built-in.o
                                        0x1f2 (size before relaxing)
 .rodata.do_status.str1.1
                0x000000004026795c       0xa0 cmd/built-in.o
                                         0xb5 (size before relaxing)
 .rodata.do_sync.str1.1
                0x00000000402679fc       0x48 arch/arm/lib/built-in.o
                                         0x29 (size before relaxing)
 .rodata.do_usb.str1.1
                0x00000000402679fc      0x38f cmd/built-in.o
                                        0x3c2 (size before relaxing)
 .rodata.do_usb_mass_storage.str1.1
                0x0000000040267d8b      0x1a1 cmd/built-in.o
                                        0x1a7 (size before relaxing)
 .rodata.do_usbboot.str1.1
                0x0000000040267f2c        0x4 cmd/built-in.o
 .rodata.do_value.str1.1
                0x0000000040267f30       0x88 cmd/built-in.o
                                         0x8f (size before relaxing)
 .rodata.do_version.str1.1
                0x0000000040267fb8       0x50 cmd/built-in.o
 .rodata.do_write.str1.1
                0x0000000040268008       0x32 cmd/built-in.o
 .rodata.do_write.str1.1
                0x000000004026803a       0x18 drivers/usb/gadget/built-in.o
 .rodata.drv_video_init.str1.1
                0x0000000040268052       0x10 drivers/built-in.o
                                         0x14 (size before relaxing)
 .rodata.dwc3_core_init.str1.1
                0x0000000040268062       0x28 drivers/usb/host/built-in.o
 .rodata.dwc3_endpoint_transfer_complete.str1.1
                0x0000000040268062       0x3c drivers/usb/dwc3/built-in.o
 .rodata.dwc3_ep0_interrupt.str1.1
                0x000000004026809e       0x23 drivers/usb/dwc3/built-in.o
 .rodata.dwc3_gadget_ep_dequeue.str1.1
                0x00000000402680c1       0x21 drivers/usb/dwc3/built-in.o
 .rodata.dwc3_gadget_ep_enable.str1.1
                0x00000000402680e2       0x1a drivers/usb/dwc3/built-in.o
 .rodata.dwc3_gadget_init.str1.1
                0x00000000402680fc       0x87 drivers/usb/dwc3/built-in.o
 .rodata.dwc3_gadget_init_hw_endpoints.str1.1
                0x0000000040268183       0x2b drivers/usb/dwc3/built-in.o
                                         0x32 (size before relaxing)
 .rodata.dwc3_gadget_start.str1.1
                0x00000000402681ae       0x30 drivers/usb/dwc3/built-in.o
 .rodata.dwc3_gadget_uboot_handle_interrupt.str1.1
                0x00000000402681de       0x33 drivers/usb/dwc3/built-in.o
 .rodata.dwc3_gadget_wakeup.str1.1
                0x0000000040268211       0x3e drivers/usb/dwc3/built-in.o
 .rodata.dwc3_uboot_init.str1.1
                0x000000004026824f       0xd2 drivers/usb/dwc3/built-in.o
 .rodata.efi_cout_clear_screen.str1.1
                0x0000000040268321        0x5 lib/built-in.o
 .rodata.efi_cout_enable_cursor.str1.1
                0x0000000040268326        0x8 lib/built-in.o
 .rodata.efi_cout_query_mode.str1.1
                0x000000004026832e        0x6 lib/built-in.o
 .rodata.efi_cout_set_cursor_position.str1.1
                0x0000000040268334        0x9 lib/built-in.o
 .rodata.efi_disk_register.str1.1
                0x000000004026833d       0x29 lib/built-in.o
                                         0x2e (size before relaxing)
 .rodata.efi_load_pe.str1.1
                0x0000000040268366       0xa0 lib/built-in.o
 .rodata.efi_runtime_relocate.str1.1
                0x0000000040268406       0x34 lib/built-in.o
 .rodata.efi_set_bootdev.str1.1
                0x000000004026843a        0x8 cmd/built-in.o
                                         0x10 (size before relaxing)
 .rodata.efi_set_timer.str1.1
                0x0000000040268442       0x2b lib/built-in.o
 .rodata.emit.str1.1
                0x000000004026846d       0x1f lib/built-in.o
 .rodata.env_callback_init.str1.1
                0x000000004026848c        0xb common/built-in.o
 .rodata.env_complete.str1.1
                0x0000000040268497        0xa common/built-in.o
                                          0x4 (size before relaxing)
 .rodata.env_export.str1.1
                0x0000000040268497       0x3d common/built-in.o
 .rodata.env_flags_init.str1.1
                0x00000000402684d4        0x7 common/built-in.o
 .rodata.env_flags_parse_varaccess.str1.1
                0x00000000402684db       0x3d common/built-in.o
 .rodata.env_flags_parse_vartype.str1.1
                0x0000000040268518       0x34 common/built-in.o
 .rodata.env_flags_validate.str1.1
                0x000000004026854c       0xb2 common/built-in.o
                                         0xb3 (size before relaxing)
 .rodata.env_import.str1.1
                0x00000000402685fe       0x55 common/built-in.o
 .rodata.env_print.str1.1
                0x0000000040268653       0x25 cmd/built-in.o
                                         0x2c (size before relaxing)
 .rodata.env_relocate_spec.str1.1
                0x0000000040268678        0xd common/built-in.o
 .rodata.esdhc_send_cmd.str1.1
                0x0000000040268685       0xb8 drivers/mmc/built-in.o
 .rodata.esdhc_set_ios.str1.1
                0x000000004026873d       0xfc drivers/mmc/built-in.o
                                        0x104 (size before relaxing)
 .rodata.eth_current_changed.str1.1
                0x0000000040268839       0x14 net/built-in.o
 .rodata.eth_get_name.str1.1
                0x0000000040268839        0x8 net/built-in.o
 .rodata.eth_getenv_enetaddr_by_index.str1.1
                0x0000000040268839       0x10 net/built-in.o
 .rodata.eth_init.str1.1
                0x0000000040268849       0x11 net/built-in.o
                                         0x28 (size before relaxing)
 .rodata.eth_initialize.str1.1
                0x000000004026885a       0x1c net/built-in.o
                                         0x1f (size before relaxing)
 .rodata.eth_mac_skip.str1.1
                0x0000000040268876       0x18 net/built-in.o
 .rodata.eth_post_bind.str1.1
                0x000000004026888e       0x2b net/built-in.o
 .rodata.eth_post_probe.str1.1
                0x00000000402688b9       0xb3 net/built-in.o
 .rodata.eth_set_current.str1.1
                0x000000004026896c        0x9 net/built-in.o
 .rodata.eth_setenv_enetaddr.str1.1
                0x000000004026896c        0x4 net/built-in.o
 .rodata.eth_write_hwaddr.str1.1
                0x0000000040268970       0x4e net/built-in.o
 .rodata.ext4_read_file.str1.1
                0x00000000402689be       0x19 fs/built-in.o
 .rodata.ext4_write_file.str1.1
                0x00000000402689d7       0x42 fs/built-in.o
 .rodata.ext4fs_allocate_blocks.str1.1
                0x0000000040268a19       0x23 fs/built-in.o
 .rodata.ext4fs_check_journal_state.str1.1
                0x0000000040268a3c       0x2e fs/built-in.o
 .rodata.ext4fs_devread.str1.1
                0x0000000040268a6a       0xa6 fs/built-in.o
 .rodata.ext4fs_filename_unlink.str1.1
                0x0000000040268b10       0x16 fs/built-in.o
 .rodata.ext4fs_get_bgdtable.str1.1
                0x0000000040268b26       0x19 fs/built-in.o
 .rodata.ext4fs_get_parent_inode_num.str1.1
                0x0000000040268b3f       0x3e fs/built-in.o
                                         0x40 (size before relaxing)
 .rodata.ext4fs_init.str1.1
                0x0000000040268b7d       0x33 fs/built-in.o
 .rodata.ext4fs_iterate_dir.str1.1
                0x0000000040268bb0       0x43 fs/built-in.o
                                         0x4a (size before relaxing)
 .rodata.ext4fs_log_journal.str1.1
                0x0000000040268bf3       0x1c fs/built-in.o
 .rodata.ext4fs_ls.str1.1
                0x0000000040268c0f       0x1f fs/built-in.o
 .rodata.ext4fs_mount.str1.1
                0x0000000040268c2e       0x24 fs/built-in.o
 .rodata.ext4fs_push_revoke_blk.str1.1
                0x0000000040268c52       0x2e fs/built-in.o
 .rodata.ext4fs_update_journal.str1.1
                0x0000000040268c80       0x19 fs/built-in.o
 .rodata.ext4fs_update_parent_dentry.str1.1
                0x0000000040268c99       0x9f fs/built-in.o
 .rodata.ext4fs_write.str1.1
                0x0000000040268d38       0x78 fs/built-in.o
 .rodata.failure.str1.1
                0x0000000040268db0       0x10 cmd/built-in.o
 .rodata.fat_read_file.str1.1
                0x0000000040268db0       0x1e fs/built-in.o
 .rodata.fat_set_blk_dev.str1.1
                0x0000000040268dce        0x3 fs/built-in.o
                                          0xd (size before relaxing)
 .rodata.fdt_address_cells.str1.1
                0x0000000040268dd1        0xf lib/built-in.o
 .rodata.fdt_chosen.str1.1
                0x0000000040268de0       0x35 common/built-in.o
                                         0x3e (size before relaxing)
 .rodata.fdt_error.str1.1
                0x0000000040268e15       0x2d common/built-in.o
 .rodata.fdt_find_or_add_subnode.str1.1
                0x0000000040268e42        0xc common/built-in.o
 .rodata.fdt_fixup_esdhc.str1.1
                0x0000000040268e4e        0xa drivers/mmc/built-in.o
                                         0x1a (size before relaxing)
 .rodata.fdt_fixup_ethernet.str1.1
                0x0000000040268e58       0x2e common/built-in.o
                                         0x42 (size before relaxing)
 .rodata.fdt_fixup_memory_banks.str1.1
                0x0000000040268e86       0x85 common/built-in.o
                                         0x94 (size before relaxing)
 .rodata.fdt_get_alias_namelen.str1.1
                0x0000000040268f0b        0x9 lib/built-in.o
 .rodata.fdt_get_phandle.str1.1
                0x0000000040268f0b        0xe lib/built-in.o
                                         0x16 (size before relaxing)
 .rodata.fdt_initrd.str1.1
                0x0000000040268f19       0x90 common/built-in.o
                                         0x97 (size before relaxing)
 .rodata.fdt_root.str1.1
                0x0000000040268fa9       0x4e common/built-in.o
 .rodata.fdt_size_cells.str1.1
                0x0000000040268ff7        0xc lib/built-in.o
 .rodata.fdt_strerror.str1.1
                0x0000000040268ff7       0x31 lib/built-in.o
 .rodata.fdt_translate_address.str1.1
                0x0000000040269028       0x22 common/built-in.o
 .rodata.fdt_valid.str1.1
                0x000000004026904a       0x79 cmd/built-in.o
                                         0x7b (size before relaxing)
 .rodata.fdtdec_add_aliases_for_id.str1.1
                0x00000000402690c3        0x9 lib/built-in.o
 .rodata.fdtdec_get_config_int.str1.1
                0x00000000402690c3        0x8 lib/built-in.o
 .rodata.fdtdec_get_is_enabled.str1.1
                0x00000000402690cb        0x5 lib/built-in.o
                                          0xc (size before relaxing)
 .rodata.fdtdec_prepare_fdt.str1.1
                0x00000000402690d0       0x96 lib/built-in.o
 .rodata.fdtdec_setup.str1.1
                0x0000000040269166        0xf lib/built-in.o
 .rodata.fec_get_miibus.str1.1
                0x0000000040269166       0x33 drivers/net/built-in.o
 .rodata.fec_phy_read.str1.1
                0x0000000040269199       0x15 drivers/net/built-in.o
 .rodata.fec_phy_write.str1.1
                0x00000000402691ae       0x16 drivers/net/built-in.o
 .rodata.fecmxc_init.str1.1
                0x00000000402691c4       0x1d drivers/net/built-in.o
 .rodata.fecmxc_ofdata_to_platdata.str1.1
                0x00000000402691e1        0x9 drivers/net/built-in.o
 .rodata.fecmxc_probe.str1.1
                0x00000000402691ea       0x3f drivers/net/built-in.o
 .rodata.fecmxc_recv.str1.1
                0x0000000040269229       0x50 drivers/net/built-in.o
 .rodata.fecmxc_send.str1.1
                0x0000000040269279       0x18 drivers/net/built-in.o
 .rodata.file_fat_detectfs.str1.1
                0x0000000040269291       0x7b fs/built-in.o
                                         0x84 (size before relaxing)
 .rodata.file_fat_read_at.str1.1
                0x000000004026930c        0xc fs/built-in.o
 .rodata.file_get.str1.1
                0x0000000040269318        0xa common/built-in.o
                                          0xd (size before relaxing)
 .rodata.find_mmc_device.str1.1
                0x0000000040269322       0x19 drivers/mmc/built-in.o
 .rodata.finish_access.str1.1
                0x000000004026933b       0x26 drivers/built-in.o
 .rodata.fit_all_image_verify.str1.1
                0x0000000040269361       0x7a common/built-in.o
 .rodata.fit_conf_find_compat.str1.1
                0x00000000402693db       0x10 common/built-in.o
                                         0x1f (size before relaxing)
 .rodata.fit_conf_get_node.str1.1
                0x00000000402693eb        0x8 common/built-in.o
 .rodata.fit_conf_print.str1.1
                0x00000000402693eb       0x7b common/built-in.o
                                         0x99 (size before relaxing)
 .rodata.fit_get_desc.str1.1
                0x0000000040269466        0xc common/built-in.o
 .rodata.fit_image_get_address.str1.1
                0x0000000040269472       0x1d common/built-in.o
 .rodata.fit_image_get_arch.str1.1
                0x000000004026948f       0x1d common/built-in.o
                                          0x5 (size before relaxing)
 .rodata.fit_image_get_comp.str1.1
                0x000000004026948f        0xc common/built-in.o
 .rodata.fit_image_get_data.str1.1
                0x000000004026948f        0x5 common/built-in.o
 .rodata.fit_image_get_entry.str1.1
                0x0000000040269494        0x6 common/built-in.o
 .rodata.fit_image_get_load.str1.1
                0x000000004026949a        0x6 common/built-in.o
                                          0x5 (size before relaxing)
 .rodata.fit_image_get_node.str1.1
                0x000000004026949a        0x8 common/built-in.o
 .rodata.fit_image_get_os.str1.1
                0x00000000402694a2        0x8 common/built-in.o
                                          0x3 (size before relaxing)
 .rodata.fit_image_get_type.str1.1
                0x00000000402694a2        0x8 common/built-in.o
                                          0x5 (size before relaxing)
 .rodata.fit_image_hash_get_algo.str1.1
                0x00000000402694a2        0x5 common/built-in.o
 .rodata.fit_image_hash_get_value.str1.1
                0x00000000402694a7        0x6 common/built-in.o
 .rodata.fit_image_load.str1.1
                0x00000000402694a7      0x1cd common/built-in.o
                                        0x1e0 (size before relaxing)
 .rodata.fit_image_print.str1.1
                0x0000000040269674       0xd0 common/built-in.o
                                         0xdd (size before relaxing)
 .rodata.fit_image_print_data.str1.1
                0x0000000040269744       0x6b common/built-in.o
                                         0x75 (size before relaxing)
 .rodata.fit_image_verify.str1.1
                0x00000000402697af       0xfa common/built-in.o
 .rodata.fit_print_contents.str1.1
                0x00000000402698a9       0x60 common/built-in.o
                                         0x64 (size before relaxing)
 .rodata.fixed_regulator_ofdata_to_platdata.str1.1
                0x0000000040269909       0x34 drivers/power/regulator/built-in.o
                                         0x39 (size before relaxing)
 .rodata.fixed_regulator_set_enable.str1.1
                0x000000004026993d       0x5c drivers/power/regulator/built-in.o
 .rodata.fs_probe_unsupported.str1.1
                0x0000000040269999       0x24 fs/built-in.o
 .rodata.fs_read.str1.1
                0x00000000402699bd       0x24 fs/built-in.o
 .rodata.fs_write.str1.1
                0x00000000402699e1       0x1f fs/built-in.o
 .rodata.fsg_add.str1.1
                0x0000000040269a00       0x5b drivers/usb/gadget/built-in.o
 .rodata.fsg_main_thread.str1.1
                0x0000000040269a5b        0xe drivers/usb/gadget/built-in.o
 .rodata.fsg_setup.str1.1
                0x0000000040269a69       0x24 drivers/usb/gadget/built-in.o
                                         0x3b (size before relaxing)
 .rodata.fsl_esdhc_init.str1.1
                0x0000000040269a8d       0x4e drivers/mmc/built-in.o
 .rodata.fsl_esdhc_probe.str1.1
                0x0000000040269adb       0xd1 drivers/mmc/built-in.o
 .rodata.ft_system_setup.str1.1
                0x0000000040269bac      0x167 arch/arm/cpu/armv8/built-in.o
                                        0x180 (size before relaxing)
 .rodata.g_dnl_bind.str1.1
                0x0000000040269d13        0xb drivers/usb/gadget/built-in.o
 .rodata.g_dnl_register.str1.1
                0x0000000040269d1e       0x18 drivers/usb/gadget/built-in.o
 .rodata.genimg_get_arch_id.str1.1
                0x0000000040269d36       0x54 common/built-in.o
                                          0x4 (size before relaxing)
 .rodata.genimg_get_arch_name.str1.1
                0x0000000040269d36       0x15 common/built-in.o
 .rodata.genimg_get_comp_id.str1.1
                0x0000000040269d4b       0x15 common/built-in.o
                                          0xc (size before relaxing)
 .rodata.genimg_get_comp_name.str1.1
                0x0000000040269d4b       0x14 common/built-in.o
 .rodata.genimg_get_os_id.str1.1
                0x0000000040269d5f       0x14 common/built-in.o
                                          0x3 (size before relaxing)
 .rodata.genimg_get_os_name.str1.1
                0x0000000040269d5f        0xb common/built-in.o
 .rodata.genimg_get_type_id.str1.1
                0x0000000040269d6a        0xb common/built-in.o
                                          0x6 (size before relaxing)
 .rodata.genimg_get_type_name.str1.1
                0x0000000040269d6a        0xe common/built-in.o
 .rodata.genimg_print_size.str1.1
                0x0000000040269d78        0xc common/built-in.o
                                          0xe (size before relaxing)
 .rodata.genphy_update_link.str1.1
                0x0000000040269d84       0x54 drivers/net/phy/built-in.o
                                         0x56 (size before relaxing)
 .rodata.get_cluster.str1.1
                0x0000000040269dd8       0x25 fs/built-in.o
 .rodata.get_current.str1.1
                0x0000000040269dfd       0x15 drivers/serial/built-in.o
 .rodata.get_descriptor_len.str1.1
                0x0000000040269e12       0x64 common/built-in.o
 .rodata.get_fatent.str1.1
                0x0000000040269e76       0x22 fs/built-in.o
 .rodata.get_imx_type.str1.1
                0x0000000040269e98       0x91 arch/arm/imx-common/built-in.o
                                          0x3 (size before relaxing)
 .rodata.get_local_var.str1.1
                0x0000000040269e98        0xa common/built-in.o
                                          0x3 (size before relaxing)
 .rodata.get_phy_device_by_mask.str1.1
                0x0000000040269e98       0x29 drivers/net/phy/built-in.o
 .rodata.get_vfatname.str1.1
                0x0000000040269ec1       0x13 fs/built-in.o
 .rodata.getenv_bootm_low.str1.1
                0x0000000040269ed4        0xa common/built-in.o
 .rodata.getenv_bootm_mapsize.str1.1
                0x0000000040269ede        0xe common/built-in.o
 .rodata.getenv_bootm_size.str1.1
                0x0000000040269eec        0xb common/built-in.o
 .rodata.getenv_f.str1.1
                0x0000000040269ef7       0x30 cmd/built-in.o
 .rodata.gpio_direction_input.str1.1
                0x0000000040269f27        0xa drivers/gpio/built-in.o
 .rodata.gpio_direction_output.str1.1
                0x0000000040269f31        0xb drivers/gpio/built-in.o
 .rodata.gpio_get_description.str1.1
                0x0000000040269f3c        0xa cmd/built-in.o
                                         0x18 (size before relaxing)
 .rodata.gpio_get_status.str1.1
                0x0000000040269f46       0x17 drivers/gpio/built-in.o
                                         0x19 (size before relaxing)
 .rodata.gpio_regulator_ofdata_to_platdata.str1.1
                0x0000000040269f5d       0x5c drivers/power/regulator/built-in.o
                                          0xd (size before relaxing)
 .rodata.gpio_regulator_set_value.str1.1
                0x0000000040269f5d       0x29 drivers/power/regulator/built-in.o
                                         0x65 (size before relaxing)
 .rodata.gunzip.str1.1
                0x0000000040269f86       0x3e lib/built-in.o
 .rodata.hang.str1.1
                0x0000000040269fc4       0x2a lib/built-in.o
 .rodata.hexport_r.str1.1
                0x0000000040269fee       0x30 lib/built-in.o
 .rodata.himport_r.str1.1
                0x000000004026a01e       0x99 lib/built-in.o
 .rodata.i2c_chip_ofdata_to_platdata.str1.1
                0x000000004026a0b7       0x16 drivers/i2c/built-in.o
                                         0x1a (size before relaxing)
 .rodata.i2c_get_chip.str1.1
                0x000000004026a0cd       0x20 drivers/i2c/built-in.o
 .rodata.i2c_get_cur_bus.str1.1
                0x000000004026a0ed       0x15 cmd/built-in.o
 .rodata.i2c_idle_bus.str1.1
                0x000000004026a102       0x28 drivers/i2c/built-in.o
                                         0x35 (size before relaxing)
 .rodata.i2c_imx_stop.str1.1
                0x000000004026a12a       0x18 drivers/i2c/built-in.o
 .rodata.i2c_init_transfer.constprop.4.str1.1
                0x000000004026a142       0x3f drivers/i2c/built-in.o
 .rodata.i2c_post_probe.str1.1
                0x000000004026a181       0x10 drivers/i2c/built-in.o
 .rodata.image_info.str1.1
                0x000000004026a191       0xef cmd/built-in.o
 .rodata.image_print_contents.str1.1
                0x000000004026a280       0xd0 common/built-in.o
                                         0xd4 (size before relaxing)
 .rodata.image_setup_libfdt.str1.1
                0x000000004026a350       0xe8 common/built-in.o
 .rodata.imx8_hdmi_disable.str1.1
                0x000000004026a438       0x69 drivers/built-in.o
 .rodata.imx8_hdmi_enable.str1.1
                0x000000004026a4a1        0xa drivers/built-in.o
 .rodata.imx8m_show_gmode.str1.1
                0x000000004026a4ab       0xb9 arch/arm/cpu/armv8/built-in.o
 .rodata.imx_pinctrl_probe.str1.1
                0x000000004026a564       0x58 drivers/built-in.o
                                         0x5c (size before relaxing)
 .rodata.imx_pinctrl_set_state.str1.1
                0x000000004026a5bc       0x84 drivers/built-in.o
 .rodata.inflate.str1.1
                0x000000004026a640      0x158 lib/built-in.o
 .rodata.inflate_fast.str1.1
                0x000000004026a798       0x50 lib/built-in.o
 .rodata.init_baud_rate.str1.1
                0x000000004026a7e8        0x9 common/built-in.o
 .rodata.init_mmc_device.str1.1
                0x000000004026a7f1       0x1a cmd/built-in.o
 .rodata.initcall_run_list.str1.1
                0x000000004026a80b       0x31 lib/built-in.o
 .rodata.initr_env.str1.1
                0x000000004026a83c       0x20 common/built-in.o
                                         0x29 (size before relaxing)
 .rodata.initr_ethaddr.str1.1
                0x000000004026a85c        0x8 common/built-in.o
 .rodata.initr_mmc.str1.1
                0x000000004026a864        0x8 common/built-in.o
 .rodata.initr_net.str1.1
                0x000000004026a86c        0x8 common/built-in.o
 .rodata.insert_var_value_sub.str1.1
                0x000000004026a874        0x6 common/built-in.o
 .rodata.internal_betoi.str1.1
                0x000000004026a87a       0x3a drivers/built-in.o
 .rodata.internal_vreadmsg.str1.1
                0x000000004026a8b4       0x25 drivers/built-in.o
 .rodata.ip_to_string.str1.1
                0x000000004026a8d9        0xc net/built-in.o
 .rodata.list_sort.str1.1
                0x000000004026a8e5       0x34 lib/built-in.o
 .rodata.lists_bind_drivers.str1.1
                0x000000004026a919       0x1a drivers/built-in.o
 .rodata.lists_bind_fdt.str1.1
                0x000000004026a933       0x3f drivers/built-in.o
                                         0x4a (size before relaxing)
 .rodata.lmb_alloc_base.str1.1
                0x000000004026a972       0x34 lib/built-in.o
 .rodata.load_serial.str1.1
                0x000000004026a9a6       0x65 cmd/built-in.o
 .rodata.load_serial_ymodem.str1.1
                0x000000004026aa0b       0x31 cmd/built-in.o
                                         0x35 (size before relaxing)
 .rodata.main_loop.str1.1
                0x000000004026aa3c       0x11 common/built-in.o
 .rodata.match.str1.1
                0x000000004026aa4d       0x18 lib/built-in.o
 .rodata.match_entry.str1.1
                0x000000004026aa65       0x1b lib/built-in.o
 .rodata.match_string.str1.1
                0x000000004026aa65       0x2c lib/built-in.o
 .rodata.mdio_list_devices.str1.1
                0x000000004026aa91       0x12 common/built-in.o
                                         0x19 (size before relaxing)
 .rodata.mdio_phydev_for_ethname.str1.1
                0x000000004026aaa3       0x1c common/built-in.o
 .rodata.mdio_register.str1.1
                0x000000004026aabf       0x2c common/built-in.o
 .rodata.miiphy_duplex.str1.1
                0x000000004026aaeb       0x5a common/built-in.o
                                         0x68 (size before relaxing)
 .rodata.miiphy_get_dev_by_name.str1.1
                0x000000004026ab45       0x13 common/built-in.o
 .rodata.miiphy_is_1000base_x.str1.1
                0x000000004026ab58       0x39 common/built-in.o
 .rodata.miiphy_listdev.str1.1
                0x000000004026ab91       0x2a common/built-in.o
 .rodata.miiphy_set_current_dev.str1.1
                0x000000004026abbb       0x14 common/built-in.o
 .rodata.miiphy_speed.str1.1
                0x000000004026abcf       0x5b common/built-in.o
 .rodata.mmc_berase.str1.1
                0x000000004026ac2a       0x6f drivers/mmc/built-in.o
 .rodata.mmc_bread.str1.1
                0x000000004026ac99       0x47 drivers/mmc/built-in.o
 .rodata.mmc_bwrite.str1.1
                0x000000004026ace0       0x12 drivers/mmc/built-in.o
                                         0x59 (size before relaxing)
 .rodata.mmc_hwpart_config.str1.1
                0x000000004026acf2      0x19f drivers/mmc/built-in.o
 .rodata.mmc_init.str1.1
                0x000000004026ae91       0x53 drivers/mmc/built-in.o
                                         0x59 (size before relaxing)
 .rodata.mmc_initialize.str1.1
                0x000000004026aee4       0x17 drivers/mmc/built-in.o
 .rodata.mmc_mode_name.str1.1
                0x000000004026aefb        0xd drivers/mmc/built-in.o
 .rodata.mmc_select_mode_and_width.str1.1
                0x000000004026af08       0xe1 drivers/mmc/built-in.o
 .rodata.mmc_send_status.str1.1
                0x000000004026afe9       0x32 drivers/mmc/built-in.o
 .rodata.mmc_start_init.str1.1
                0x000000004026b01b       0x79 drivers/mmc/built-in.o
                                         0x85 (size before relaxing)
 .rodata.mod_i2c_mem.isra.1.str1.1
                0x000000004026b094       0x21 cmd/built-in.o
                                         0x28 (size before relaxing)
 .rodata.mod_mem.isra.0.str1.1
                0x000000004026b0b5       0x15 cmd/built-in.o
                                         0x26 (size before relaxing)
 .rodata.mtd_arg_off.str1.1
                0x000000004026b0ca       0x38 drivers/mtd/built-in.o
 .rodata.mtd_arg_off_size.str1.1
                0x000000004026b102       0x71 drivers/mtd/built-in.o
 .rodata.mxc_gpio_probe.str1.1
                0x000000004026b173        0x8 drivers/gpio/built-in.o
 .rodata.mxc_i2c_probe.str1.1
                0x000000004026b17b       0x45 drivers/i2c/built-in.o
                                         0x53 (size before relaxing)
 .rodata.net_auto_load.str1.1
                0x000000004026b1c0        0xd net/built-in.o
 .rodata.net_loop.str1.1
                0x000000004026b1cd       0xe5 net/built-in.o
                                         0xf7 (size before relaxing)
 .rodata.net_process_received_packet.str1.1
                0x000000004026b2b2       0x1d net/built-in.o
 .rodata.net_start_again.str1.1
                0x000000004026b2cf        0xe net/built-in.o
                                         0x15 (size before relaxing)
 .rodata.netboot_common.str1.1
                0x000000004026b2dd       0x16 cmd/built-in.o
                                         0x4a (size before relaxing)
 .rodata.nfs_handler.str1.1
                0x000000004026b2f3       0x56 net/built-in.o
 .rodata.nfs_lookup_reply.str1.1
                0x000000004026b349       0x25 net/built-in.o
                                         0x27 (size before relaxing)
 .rodata.nfs_read_reply.isra.0.str1.1
                0x000000004026b36e        0x4 net/built-in.o
 .rodata.nfs_readlink_reply.str1.1
                0x000000004026b372        0x2 net/built-in.o
 .rodata.nfs_start.str1.1
                0x000000004026b372       0x1e net/built-in.o
                                         0x1f (size before relaxing)
 .rodata.nfs_timeout_handler.str1.1
                0x000000004026b390       0x2a net/built-in.o
 .rodata.nxp_tmu_bind.str1.1
                0x000000004026b3ba        0xe drivers/built-in.o
                                         0x38 (size before relaxing)
 .rodata.nxp_tmu_get_temp.str1.1
                0x000000004026b3c8       0x53 drivers/built-in.o
 .rodata.nxp_tmu_ofdata_to_platdata.str1.1
                0x000000004026b41b       0x57 drivers/built-in.o
                                         0x60 (size before relaxing)
 .rodata.nxp_tmu_probe.str1.1
                0x000000004026b472       0x6d drivers/built-in.o
 .rodata.of_bus_default_count_cells.str1.1
                0x000000004026b4df        0xc common/built-in.o
 .rodata.on_baudrate.str1.1
                0x000000004026b4eb       0x42 drivers/serial/built-in.o
                                         0x74 (size before relaxing)
 .rodata.on_callbacks.str1.1
                0x000000004026b52d       0xf4 common/built-in.o
 .rodata.on_console.str1.1
                0x000000004026b621       0x10 common/built-in.o
                                         0x27 (size before relaxing)
 .rodata.on_flags.str1.1
                0x000000004026b621       0x50 common/built-in.o
 .rodata.parse_argv.str1.1
                0x000000004026b671        0x6 cmd/built-in.o
                                          0xd (size before relaxing)
 .rodata.parse_stream_outer.str1.1
                0x000000004026b677       0x4d common/built-in.o
 .rodata.parse_string_outer.str1.1
                0x000000004026b6c4        0x2 common/built-in.o
 .rodata.part_get_info_extended.constprop.1.str1.1
                0x000000004026b6c4        0x7 disk/built-in.o
 .rodata.part_print.str1.1
                0x000000004026b6c4       0x24 disk/built-in.o
 .rodata.part_print_dos.str1.1
                0x000000004026b6e8       0x2a disk/built-in.o
 .rodata.part_set_generic_name.str1.1
                0x000000004026b712        0xa disk/built-in.o
 .rodata.pfuze100_bind.str1.1
                0x000000004026b71c        0xb drivers/power/pmic/built-in.o
 .rodata.pfuze100_read.str1.1
                0x000000004026b727       0x40 drivers/power/pmic/built-in.o
 .rodata.pfuze100_regulator_mode.str1.1
                0x000000004026b767        0x6 drivers/power/regulator/built-in.o
 .rodata.pfuze100_regulator_set_enable.str1.1
                0x000000004026b76d        0x8 drivers/power/regulator/built-in.o
 .rodata.pfuze100_write.str1.1
                0x000000004026b775       0x5d drivers/power/pmic/built-in.o
 .rodata.phy_connect_dev.str1.1
                0x000000004026b7d2       0x2f drivers/net/phy/built-in.o
 .rodata.phy_reset.str1.1
                0x000000004026b801       0x15 drivers/net/phy/built-in.o
 .rodata.pinconfig_post_bind.str1.1
                0x000000004026b816        0xa drivers/built-in.o
                                         0x29 (size before relaxing)
 .rodata.pinctrl_select_state.str1.1
                0x000000004026b820       0x53 drivers/built-in.o
 .rodata.ping_start.str1.1
                0x000000004026b873       0x11 net/built-in.o
 .rodata.prepare_access.str1.1
                0x000000004026b884       0x22 drivers/built-in.o
 .rodata.prepare_ring.str1.1
                0x000000004026b8a6       0xa0 drivers/usb/host/built-in.o
 .rodata.print_buffer.str1.1
                0x000000004026b946        0x8 lib/built-in.o
                                         0x19 (size before relaxing)
 .rodata.print_cpuinfo.str1.1
                0x000000004026b94e      0x134 arch/arm/imx-common/built-in.o
                                        0x154 (size before relaxing)
 .rodata.print_data.str1.1
                0x000000004026ba82       0x27 cmd/built-in.o
                                         0x32 (size before relaxing)
 .rodata.print_freq.str1.1
                0x000000004026baa9       0x1b lib/built-in.o
 .rodata.print_jrnl_status.str1.1
                0x000000004026bac4       0x34 fs/built-in.o
 .rodata.print_mmc_devices.str1.1
                0x000000004026baf8       0x12 drivers/mmc/built-in.o
                                         0x1c (size before relaxing)
 .rodata.print_num.str1.1
                0x000000004026bb0a       0x10 cmd/built-in.o
 .rodata.print_partition_extended.str1.1
                0x000000004026bb1a       0x83 disk/built-in.o
                                         0x84 (size before relaxing)
 .rodata.print_size.str1.1
                0x000000004026bb9d       0x15 lib/built-in.o
 .rodata.put_ext4.str1.1
                0x000000004026bbb2       0x42 fs/built-in.o
 .rodata.quantifier.str1.1
                0x000000004026bbf4       0x17 lib/built-in.o
 .rodata.read_allocated_block.str1.1
                0x000000004026bc0b      0x240 fs/built-in.o
 .rodata.read_bootsectandvi.str1.1
                0x000000004026be4b       0x1b fs/built-in.o
 .rodata.realloc.str1.1
                0x000000004026be66       0x25 common/built-in.o
 .rodata.record_transfer_result.str1.1
                0x000000004026be8b       0x1d drivers/usb/host/built-in.o
                                         0x3f (size before relaxing)
 .rodata.regex_callback.str1.1
                0x000000004026bea8        0x5 common/built-in.o
                                         0x20 (size before relaxing)
 .rodata.regex_sub.part.1.str1.1
                0x000000004026bead       0xbd cmd/built-in.o
 .rodata.regulator_post_bind.str1.1
                0x000000004026bf6a        0xf drivers/power/regulator/built-in.o
 .rodata.regulator_pre_probe.str1.1
                0x000000004026bf6a       0x84 drivers/power/regulator/built-in.o
 .rodata.run_list_real.str1.1
                0x000000004026bfee       0x45 common/built-in.o
                                         0x4b (size before relaxing)
 .rodata.saveenv.str1.1
                0x000000004026c033       0x3d common/built-in.o
                                         0x50 (size before relaxing)
 .rodata.set_default_env.str1.1
                0x000000004026c070       0x9b common/built-in.o
 .rodata.set_field_value.str1.1
                0x000000004026c10b       0x8e drivers/built-in.o
 .rodata.set_local_var.str1.1
                0x000000004026c199       0x59 common/built-in.o
 .rodata.set_working_fdt_addr.str1.1
                0x000000004026c1f2        0x8 cmd/built-in.o
 .rodata.setenv.str1.1
                0x000000004026c1fa        0x7 cmd/built-in.o
 .rodata.setenv_hex.str1.1
                0x000000004026c201        0x4 cmd/built-in.o
 .rodata.setup_pgtables.str1.1
                0x000000004026c205       0x2d arch/arm/cpu/armv8/built-in.o
 .rodata.show_board_info.str1.1
                0x000000004026c232       0x11 common/built-in.o
 .rodata.show_bus.str1.1
                0x000000004026c243       0x3f cmd/built-in.o
                                         0x41 (size before relaxing)
 .rodata.show_devices.str1.1
                0x000000004026c282       0x21 drivers/built-in.o
                                         0x2a (size before relaxing)
 .rodata.show_dram_config.str1.1
                0x000000004026c2a3        0x1 common/built-in.o
 .rodata.show_regs.str1.1
                0x000000004026c2a3       0x39 arch/arm/lib/built-in.o
                                         0x3b (size before relaxing)
 .rodata.simple_bus_post_bind.str1.1
                0x000000004026c2dc        0x7 drivers/built-in.o
 .rodata.sleep_thread.isra.17.str1.1
                0x000000004026c2dc        0xc drivers/usb/gadget/built-in.o
 .rodata.smbios_write_type0.str1.1
                0x000000004026c2e8        0xb lib/built-in.o
                                         0x23 (size before relaxing)
 .rodata.smbios_write_type1.str1.1
                0x000000004026c2f3        0x8 lib/built-in.o
 .rodata.smbios_write_type2.str1.1
                0x000000004026c2f3        0xb lib/built-in.o
 .rodata.smbios_write_type3.str1.1
                0x000000004026c2fe        0xa lib/built-in.o
 .rodata.smbios_write_type4.str1.1
                0x000000004026c308        0x8 lib/built-in.o
 .rodata.source.str1.1
                0x000000004026c308       0xfe cmd/built-in.o
                                        0x114 (size before relaxing)
 .rodata.spi_flash_cmd_erase_ops.str1.1
                0x000000004026c406       0x2f drivers/mtd/spi/built-in.o
 .rodata.spi_flash_cmd_write_ops.str1.1
                0x000000004026c435       0x30 drivers/mtd/spi/built-in.o
 .rodata.spi_flash_scan.str1.1
                0x000000004026c465       0xbe drivers/mtd/spi/built-in.o
                                         0xc1 (size before relaxing)
 .rodata.spi_flash_write_common.str1.1
                0x000000004026c523        0xe drivers/mtd/spi/built-in.o
 .rodata.splash_get_pos.str1.1
                0x000000004026c531        0xa common/built-in.o
 .rodata.split_block.str1.1
                0x000000004026c53b       0x74 arch/arm/cpu/armv8/built-in.o
 .rodata.stdio_add_devices.str1.1
                0x000000004026c5af        0x8 common/built-in.o
                                          0xf (size before relaxing)
 .rodata.stdio_print_current_devices.str1.1
                0x000000004026c5b7       0x70 common/built-in.o
                                         0x74 (size before relaxing)
 .rodata.store_char_in_data.str1.1
                0x000000004026c627       0x1f lib/built-in.o
 .rodata.str1.1
                0x000000004026c646       0xa2 arch/arm/cpu/armv8/built-in.o
                                         0xaa (size before relaxing)
 .rodata.str1.1
                0x000000004026c6e8       0xb9 arch/arm/imx-common/built-in.o
 .rodata.str1.1
                0x000000004026c7a1        0x5 board/freescale/imx8mq_evk/built-in.o
 .rodata.str1.1
                0x000000004026c7a6     0x378a cmd/built-in.o
                                       0x3a11 (size before relaxing)
 .rodata.str1.1
                0x000000004026ff30      0x718 common/built-in.o
                                        0x799 (size before relaxing)
 .rodata.str1.1
                0x0000000040270648       0x17 disk/built-in.o
                                         0x1a (size before relaxing)
 .rodata.str1.1
                0x000000004027065f      0x101 drivers/built-in.o
                                        0x123 (size before relaxing)
 .rodata.str1.1
                0x0000000040270760       0x24 drivers/gpio/built-in.o
                                         0x3e (size before relaxing)
 .rodata.str1.1
                0x0000000040270784       0x30 drivers/i2c/built-in.o
                                         0x34 (size before relaxing)
 .rodata.str1.1
                0x00000000402707b4      0x17b drivers/mmc/built-in.o
                                        0x183 (size before relaxing)
 .rodata.str1.1
                0x000000004027092f       0xdf drivers/mtd/spi/built-in.o
 .rodata.str1.1
                0x0000000040270a0e       0x41 drivers/net/built-in.o
 .rodata.str1.1
                0x0000000040270a4f       0x6f drivers/net/phy/built-in.o
                                         0x83 (size before relaxing)
 .rodata.str1.1
                0x0000000040270abe       0x49 drivers/power/pmic/built-in.o
                                         0x52 (size before relaxing)
 .rodata.str1.1
                0x0000000040270b07      0x153 drivers/power/regulator/built-in.o
                                        0x170 (size before relaxing)
 .rodata.str1.1
                0x0000000040270c5a        0x9 drivers/serial/built-in.o
 .rodata.str1.1
                0x0000000040270c5a        0xc drivers/usb/gadget/built-in.o
 .rodata.str1.1
                0x0000000040270c5a       0x15 fs/built-in.o
 .rodata.str1.1
                0x0000000040270c6f      0x45f lib/built-in.o
                                        0x460 (size before relaxing)
 .rodata.str1.1
                0x00000000402710ce        0x6 net/built-in.o
                                         0x3e (size before relaxing)
 .rodata.str1.1
                0x00000000402710d4       0xd5 test/dm/built-in.o
                                         0xe2 (size before relaxing)
 .rodata.string.str1.1
                0x00000000402711a9        0x7 lib/built-in.o
 .rodata.submit_bulk_msg.str1.1
                0x00000000402711b0       0x19 drivers/usb/host/built-in.o
 .rodata.submit_control_msg.str1.1
                0x00000000402711c9      0x180 drivers/usb/host/built-in.o
 .rodata.substitute.str1.1
                0x0000000040271349       0x28 cmd/built-in.o
 .rodata.syntax_err.str1.1
                0x0000000040271371        0xe common/built-in.o
 .rodata.tcpc_get_cc_status.str1.1
                0x000000004027137f       0xfc board/freescale/common/built-in.o
                                        0x11a (size before relaxing)
 .rodata.tcpc_init.str1.1
                0x000000004027147b      0x2cb board/freescale/common/built-in.o
                                        0x2d8 (size before relaxing)
 .rodata.tcpc_print_log.str1.1
                0x0000000040271746      0x2cb board/freescale/common/built-in.o
                                          0x3 (size before relaxing)
 .rodata.tcpc_set_cc_to_source.str1.1
                0x0000000040271746       0x20 board/freescale/common/built-in.o
 .rodata.tcpc_set_plug_orientation.str1.1
                0x0000000040271766       0x1f board/freescale/common/built-in.o
 .rodata.tcpc_setup_dfp_mode.str1.1
                0x0000000040271785       0x75 board/freescale/common/built-in.o
 .rodata.test_block_type.str1.1
                0x00000000402717fa        0xa disk/built-in.o
 .rodata.tftp_handler.str1.1
                0x0000000040271804       0x72 net/built-in.o
                                         0x80 (size before relaxing)
 .rodata.tftp_send.str1.1
                0x0000000040271876       0x36 net/built-in.o
                                         0x42 (size before relaxing)
 .rodata.tftp_start.str1.1
                0x00000000402718ac      0x156 net/built-in.o
                                        0x181 (size before relaxing)
 .rodata.tftp_timeout_handler.str1.1
                0x0000000040271a02       0x2a net/built-in.o
                                         0x2d (size before relaxing)
 .rodata.u_boot_hush_start.str1.1
                0x0000000040271a2c       0x12 common/built-in.o
 .rodata.uclass_resolve_seq.str1.1
                0x0000000040271a3e       0x27 drivers/built-in.o
 .rodata.usb_alloc_new_device.str1.1
                0x0000000040271a65       0x25 common/built-in.o
 .rodata.usb_composite_register.str1.1
                0x0000000040271a8a        0xa drivers/usb/gadget/built-in.o
 .rodata.usb_del_gadget_udc.str1.1
                0x0000000040271a94       0x18 drivers/usb/gadget/udc/built-in.o
 .rodata.usb_display_class_sub.str1.1
                0x0000000040271aac       0xb6 cmd/built-in.o
                                         0xbc (size before relaxing)
 .rodata.usb_display_config.str1.1
                0x0000000040271b62      0x10d cmd/built-in.o
                                        0x11a (size before relaxing)
 .rodata.usb_display_desc.part.1.str1.1
                0x0000000040271c6f       0xac cmd/built-in.o
 .rodata.usb_display_string.str1.1
                0x0000000040271d1b        0xd cmd/built-in.o
 .rodata.usb_ep_autoconfig.str1.1
                0x0000000040271d28       0x13 drivers/usb/gadget/built-in.o
                                         0x1f (size before relaxing)
 .rodata.usb_gadget_probe_driver.str1.1
                0x0000000040271d3b       0x38 drivers/usb/gadget/udc/built-in.o
 .rodata.usb_get_class_desc.str1.1
                0x0000000040271d73       0x64 cmd/built-in.o
                                         0x65 (size before relaxing)
 .rodata.usb_get_configuration_len.str1.1
                0x0000000040271dd7       0x58 common/built-in.o
 .rodata.usb_hub_configure.str1.1
                0x0000000040271e2f       0x80 common/built-in.o
 .rodata.usb_hub_port_connect_change.str1.1
                0x0000000040271eaf       0x39 common/built-in.o
 .rodata.usb_init.str1.1
                0x0000000040271ee8       0xb3 common/built-in.o
 .rodata.usb_lowlevel_init.str1.1
                0x0000000040271f9b       0x44 drivers/usb/host/built-in.o
 .rodata.usb_select_config.str1.1
                0x0000000040271fdf      0x220 common/built-in.o
 .rodata.usb_set_interface.str1.1
                0x00000000402721ff       0x1f common/built-in.o
 .rodata.usb_setup_device.str1.1
                0x000000004027221e       0x91 common/built-in.o
 .rodata.usb_show_tree_graph.str1.1
                0x00000000402722af       0x2b cmd/built-in.o
                                         0x3a (size before relaxing)
 .rodata.usb_stop.str1.1
                0x00000000402722da       0x22 common/built-in.o
 .rodata.usb_stor_CBI_get_status.isra.4.str1.1
                0x00000000402722fc       0x1f common/built-in.o
 .rodata.usb_stor_CB_transport.str1.1
                0x000000004027231b       0x6e common/built-in.o
 .rodata.usb_stor_get_info.str1.1
                0x0000000040272389       0x5d common/built-in.o
 .rodata.usb_stor_info.str1.1
                0x00000000402723e6       0x32 common/built-in.o
                                         0x40 (size before relaxing)
 .rodata.usb_stor_scan.str1.1
                0x0000000040272418       0x75 common/built-in.o
 .rodata.usb_storage_probe.str1.1
                0x000000004027248d       0x5c common/built-in.o
 .rodata.valid_elf_image.str1.1
                0x00000000402724e9       0x52 cmd/built-in.o
 .rodata.var_complete.str1.1
                0x000000004027253b        0x1 common/built-in.o
 .rodata.video_display_bitmap.str1.1
                0x000000004027253b       0xf5 drivers/built-in.o
 .rodata.video_hw_init.str1.1
                0x0000000040272630       0x66 arch/arm/cpu/armv8/built-in.o
 .rodata.wait_for_sr_state.str1.1
                0x0000000040272696       0x4c drivers/i2c/built-in.o
 .rodata.write_smbios_table.str1.1
                0x00000000402726e2        0xb lib/built-in.o
 .rodata.xhci_alloc_virt_device.str1.1
                0x00000000402726ed       0xa5 drivers/usb/host/built-in.o
 .rodata.xhci_configure_endpoints.str1.1
                0x0000000040272792       0x6c drivers/usb/host/built-in.o
                                         0x8e (size before relaxing)
 .rodata.xhci_hcd_init.str1.1
                0x00000000402727fe       0x4b drivers/usb/host/built-in.o
 .rodata.xhci_mem_init.str1.1
                0x0000000040272849       0x5b drivers/usb/host/built-in.o
 .rodata.xhci_reset.str1.1
                0x00000000402728a4       0x28 drivers/usb/host/built-in.o
 .rodata.xhci_ring_free.str1.1
                0x00000000402728cc       0x1c drivers/usb/host/built-in.o
                                         0x3e (size before relaxing)
 .rodata.xhci_wait_for_event.str1.1
                0x00000000402728e8       0x70 drivers/usb/host/built-in.o
 .rodata.xmalloc.str1.1
                0x0000000040272958       0x1e common/built-in.o
 .rodata.xyzModem_error.str1.1
                0x0000000040272976        0xe common/built-in.o
 .rodata.xyzModem_stream_close.str1.1
                0x0000000040272984       0x47 common/built-in.o
                                         0x4b (size before relaxing)
 .rodata.xyzModem_stream_open.str1.1
                0x00000000402729cb        0x2 common/built-in.o
 .rodata.zunzip.str1.1
                0x00000000402729cb       0x47 lib/built-in.o

.hash           0x0000000040272a18       0x18
 .hash          0x0000000040272a18       0x18 arch/arm/cpu/armv8/start.o
                0x0000000040272a30                . = ALIGN (0x8)

.data           0x0000000040272a30    0x10f18
 *(.data*)
 .data.rel.ro   0x0000000040272a30        0x0 arch/arm/cpu/armv8/start.o
 .data.root_array
                0x0000000040272a30      0x744 arch/arm/cpu/armv8/built-in.o
 *fill*         0x0000000040273174        0x4 
 .data.imx8m_mem_map
                0x0000000040273178      0x100 arch/arm/cpu/armv8/built-in.o
 .data.mem_map  0x0000000040273278        0x8 arch/arm/cpu/armv8/built-in.o
                0x0000000040273278                mem_map
 .data.color_list_argb32
                0x0000000040273280       0x20 arch/arm/cpu/armv8/built-in.o
 .data.reset_cause
                0x00000000402732a0        0x4 arch/arm/imx-common/built-in.o
 *fill*         0x00000000402732a4        0x4 
 .data.display_count
                0x00000000402732a8        0x8 board/freescale/imx8mq_evk/built-in.o
                0x00000000402732a8                display_count
 .data.dwc3_device_data
                0x00000000402732b0       0x58 board/freescale/imx8mq_evk/built-in.o
 .data.port_config
                0x0000000040273308       0x18 board/freescale/imx8mq_evk/built-in.o
                0x0000000040273308                port_config
 .data.ss_mux_gpio
                0x0000000040273320        0x8 board/freescale/imx8mq_evk/built-in.o
 .data.bootm_help_text
                0x0000000040273328      0x4cf cmd/built-in.o
 *fill*         0x00000000402737f7        0x1 
 .data.cmd_bootm_sub
                0x00000000402737f8      0x1b0 cmd/built-in.o
 .data.source_help_text
                0x00000000402739a8       0xac cmd/built-in.o
 *fill*         0x0000000040273a54        0x4 
 .data.bootefi_device_obj
                0x0000000040273a58       0x58 cmd/built-in.o
 .data.bootefi_device_path
                0x0000000040273ab0       0x88 cmd/built-in.o
 .data.bootefi_help_text
                0x0000000040273b38       0xbf cmd/built-in.o
 *fill*         0x0000000040273bf7        0x1 
 .data.bootefi_image_path
                0x0000000040273bf8       0x88 cmd/built-in.o
 .data.loaded_image_info
                0x0000000040273c80       0xa0 cmd/built-in.o
 .data.loaded_image_info_obj
                0x0000000040273d20       0x58 cmd/built-in.o
 .data.booti_help_text
                0x0000000040273d78      0x1e1 cmd/built-in.o
 *fill*         0x0000000040273f59        0x7 
 .data.fdt_help_text
                0x0000000040273f60      0x689 cmd/built-in.o
 *fill*         0x00000000402745e9        0x7 
 .data.root.5818
                0x00000000402745f0        0x2 cmd/built-in.o
 *fill*         0x00000000402745f2        0x6 
 .data.tabs.5903
                0x00000000402745f8       0x21 cmd/built-in.o
 *fill*         0x0000000040274619        0x7 
 .data.cmd_i2c_sub
                0x0000000040274620      0x2d0 cmd/built-in.o
 .data.i2c_dp_last_length
                0x00000000402748f0        0x4 cmd/built-in.o
 *fill*         0x00000000402748f4        0x4 
 .data.i2c_help_text
                0x00000000402748f8      0x3e9 cmd/built-in.o
 *fill*         0x0000000040274ce1        0x3 
 .data.do_echo  0x0000000040274ce4        0x4 cmd/built-in.o
 .data.dp_last_length
                0x0000000040274ce8        0x8 cmd/built-in.o
 .data.cmd_mmc  0x0000000040274cf0      0x2a0 cmd/built-in.o
 .data.curr_device
                0x0000000040274f90        0x4 cmd/built-in.o
 .data.usb_stor_curr_dev
                0x0000000040274f94        0x4 cmd/built-in.o
 .data.imgextract_help_text
                0x0000000040274f98       0xb2 cmd/built-in.o
 *fill*         0x000000004027504a        0x6 
 .data.subcmd   0x0000000040275050      0x2a0 cmd/built-in.o
 .data.cmd_env_sub
                0x00000000402752f0      0x180 cmd/built-in.o
 .data.env_help_text
                0x0000000040275470      0x1c2 cmd/built-in.o
 *fill*         0x0000000040275632        0x2 
 .data.env_id   0x0000000040275634        0x4 cmd/built-in.o
 .data.reserved_list
                0x0000000040275638      0x108 common/built-in.o
 .data.init_sequence_r
                0x0000000040275740       0xe8 common/built-in.o
 .data.first_call
                0x0000000040275828        0x8 common/built-in.o
 .data.env_name_spec
                0x0000000040275830        0x8 common/built-in.o
                0x0000000040275830                env_name_spec
 .data.of_busses
                0x0000000040275838       0x30 common/built-in.o
 .data.usb_scan_list
                0x0000000040275868       0x10 common/built-in.o
 .data.env_htab
                0x0000000040275878       0x18 common/built-in.o
                0x0000000040275878                env_htab
 .data.av_      0x0000000040275890      0x810 common/built-in.o
 .data.sbrk_base
                0x00000000402760a0        0x8 common/built-in.o
 .data.trim_threshold
                0x00000000402760a8        0x8 common/built-in.o
 .data.load_addr
                0x00000000402760b0        0x8 common/built-in.o
                0x00000000402760b0                load_addr
 .data.stdio_names
                0x00000000402760b8       0x18 common/built-in.o
                0x00000000402760b8                stdio_names
 .data.hist_cur
                0x00000000402760d0        0x4 common/built-in.o
 *fill*         0x00000000402760d4        0x4 
 .data.bmp_logo_bitmap
                0x00000000402760d8     0xb600 drivers/built-in.o
                0x00000000402760d8                bmp_logo_bitmap
 .data.bmp_logo_palette
                0x00000000402816d8      0x1e0 drivers/built-in.o
                0x00000000402816d8                bmp_logo_palette
 .data.nl.6639  0x00000000402818b8        0x4 drivers/built-in.o
 *fill*         0x00000000402818bc        0x4 
 .data.video_fontdata
                0x00000000402818c0     0x1000 drivers/built-in.o
 .data.video_logo_height
                0x00000000402828c0        0x4 drivers/built-in.o
 *fill*         0x00000000402828c4        0x4 
 .data.g_color_depth
                0x00000000402828c8        0x8 drivers/built-in.o
                0x00000000402828c8                g_color_depth
 .data.cur_dev_num
                0x00000000402828d0        0x4 drivers/mmc/built-in.o
 *fill*         0x00000000402828d4        0x4 
 .data.usdhc_imx8qm_data
                0x00000000402828d8        0x8 drivers/mmc/built-in.o
 .data.genphy_driver
                0x00000000402828e0       0x58 drivers/net/phy/built-in.o
 .data.phy_drivers
                0x0000000040282938       0x10 drivers/net/phy/built-in.o
 .data.AR8021_driver
                0x0000000040282948       0x58 drivers/net/phy/built-in.o
 .data.AR8031_driver
                0x00000000402829a0       0x58 drivers/net/phy/built-in.o
 .data.AR8035_driver
                0x00000000402829f8       0x58 drivers/net/phy/built-in.o
 .data.pfuze100_ops
                0x0000000040282a50       0x18 drivers/power/pmic/built-in.o
 .data.pfuze100_regulators
                0x0000000040282a68      0x2d0 drivers/power/regulator/built-in.o
 .data.pfuze100_swbst
                0x0000000040282d38       0x10 drivers/power/regulator/built-in.o
 .data.pfuze100_vsnvs
                0x0000000040282d48       0x20 drivers/power/regulator/built-in.o
 .data.pfuze200_regulators
                0x0000000040282d68      0x270 drivers/power/regulator/built-in.o
 .data.pfuze3000_regulators
                0x0000000040282fd8      0x270 drivers/power/regulator/built-in.o
 .data.pfuze3000_sw2lo
                0x0000000040283248       0x20 drivers/power/regulator/built-in.o
 .data.pfuze3000_vsnvs
                0x0000000040283268       0x20 drivers/power/regulator/built-in.o
 .data.pfuze_ldo_modes
                0x0000000040283288       0x20 drivers/power/regulator/built-in.o
 .data.pfuze_sw_modes
                0x00000000402832a8       0x90 drivers/power/regulator/built-in.o
 .data.pfuze_swbst_modes
                0x0000000040283338       0x40 drivers/power/regulator/built-in.o
 .data.mxc_serial_drv
                0x0000000040283378       0x50 drivers/serial/built-in.o
 .data.dwc3_list
                0x00000000402833c8       0x10 drivers/usb/dwc3/built-in.o
 .data.dwc3_gadget_ep0_desc
                0x00000000402833d8        0x9 drivers/usb/dwc3/built-in.o
 *fill*         0x00000000402833e1        0x7 
 .data.composite_driver
                0x00000000402833e8       0x48 drivers/usb/gadget/built-in.o
 .data.device_desc
                0x0000000040283430       0x12 drivers/usb/gadget/built-in.o
 *fill*         0x0000000040283442        0x6 
 .data.g_dnl_composite_strings
                0x0000000040283448       0x10 drivers/usb/gadget/built-in.o
 .data.g_dnl_driver
                0x0000000040283458       0x40 drivers/usb/gadget/built-in.o
 .data.g_dnl_string_defs
                0x0000000040283498       0x40 drivers/usb/gadget/built-in.o
 .data.g_dnl_string_tab
                0x00000000402834d8       0x10 drivers/usb/gadget/built-in.o
 .data.fsg_fs_bulk_in_desc
                0x00000000402834e8        0x9 drivers/usb/gadget/built-in.o
 *fill*         0x00000000402834f1        0x7 
 .data.fsg_fs_bulk_out_desc
                0x00000000402834f8        0x9 drivers/usb/gadget/built-in.o
 *fill*         0x0000000040283501        0x7 
 .data.fsg_fs_function
                0x0000000040283508       0x20 drivers/usb/gadget/built-in.o
 .data.fsg_hs_bulk_in_desc
                0x0000000040283528        0x9 drivers/usb/gadget/built-in.o
 *fill*         0x0000000040283531        0x7 
 .data.fsg_hs_bulk_out_desc
                0x0000000040283538        0x9 drivers/usb/gadget/built-in.o
 *fill*         0x0000000040283541        0x7 
 .data.fsg_hs_function
                0x0000000040283548       0x20 drivers/usb/gadget/built-in.o
 .data.fsg_intf_desc
                0x0000000040283568        0x9 drivers/usb/gadget/built-in.o
 *fill*         0x0000000040283571        0x7 
 .data.fsg_strings
                0x0000000040283578       0x20 drivers/usb/gadget/built-in.o
 .data.fsg_strings_array
                0x0000000040283598       0x10 drivers/usb/gadget/built-in.o
 .data.fsg_stringtab
                0x00000000402835a8       0x10 drivers/usb/gadget/built-in.o
 .data.udc_list
                0x00000000402835b8       0x10 drivers/usb/gadget/udc/built-in.o
 .data.descriptor
                0x00000000402835c8       0x3e drivers/usb/host/built-in.o
 *fill*         0x0000000040283606        0x2 
 .data.fstypes  0x0000000040283608      0x108 fs/built-in.o
 .data.ext4fs_indir1_blkno
                0x0000000040283710        0x4 fs/built-in.o
                0x0000000040283710                ext4fs_indir1_blkno
 .data.ext4fs_indir2_blkno
                0x0000000040283714        0x4 fs/built-in.o
                0x0000000040283714                ext4fs_indir2_blkno
 .data.ext4fs_indir3_blkno
                0x0000000040283718        0x4 fs/built-in.o
                0x0000000040283718                ext4fs_indir3_blkno
 .data.prev_bg_bitmap_index.6461
                0x000000004028371c        0x4 fs/built-in.o
 .data.prev_inode_bitmap_index.6485
                0x0000000040283720        0x4 fs/built-in.o
 .data.prev_bg_bmap_idx.6144
                0x0000000040283724        0x4 fs/built-in.o
 .data.prev_bg_bmap_idx.6159
                0x0000000040283728        0x4 fs/built-in.o
 .data.prev_bg_bmap_idx.6181
                0x000000004028372c        0x4 fs/built-in.o
 .data.prev_bg_bmap_idx.6216
                0x0000000040283730        0x4 fs/built-in.o
 .data.first_node
                0x0000000040283734        0x4 fs/built-in.o
 .data.efi_event
                0x0000000040283738       0x30 lib/built-in.o
 .data.efi_obj_list
                0x0000000040283768       0x10 lib/built-in.o
                0x0000000040283768                efi_obj_list
 .data.loaded_image_info_obj.6786
                0x0000000040283778       0x58 lib/built-in.o
 .data.efi_runtime_mmio
                0x00000000402837d0       0x10 lib/built-in.o
                0x00000000402837d0                efi_runtime_mmio
 .data.efi_con_mode
                0x00000000402837e0       0x18 lib/built-in.o
 .data.efi_cout_modes
                0x00000000402837f8       0x48 lib/built-in.o
 .data.efi_mem  0x0000000040283840       0x10 lib/built-in.o
                0x0000000040283840                efi_mem
 .data.sha256_padding
                0x0000000040283850       0x40 lib/built-in.o
 .data.first_call.6337
                0x0000000040283890        0x4 net/built-in.o
 .data.net_native_vlan
                0x0000000040283894        0x2 net/built-in.o
                0x0000000040283894                net_native_vlan
 .data.net_our_vlan
                0x0000000040283896        0x2 net/built-in.o
                0x0000000040283896                net_our_vlan
 .data.nfs_offset
                0x0000000040283898        0x4 net/built-in.o
 .data.supported_nfs_versions
                0x000000004028389c        0x1 net/built-in.o
 *fill*         0x000000004028389d        0x1 
 .data.tftp_block_size
                0x000000004028389e        0x2 net/built-in.o
 .data.tftp_block_size_option
                0x00000000402838a0        0x2 net/built-in.o
 *fill*         0x00000000402838a2        0x2 
 .data.tftp_timeout_count_max
                0x00000000402838a4        0x4 net/built-in.o
                0x00000000402838a4                tftp_timeout_count_max
 .data.timeout_count_max
                0x00000000402838a8        0x4 net/built-in.o
 *fill*         0x00000000402838ac        0x4 
 .data.timeout_ms
                0x00000000402838b0        0x8 net/built-in.o
 .data.test_commands
                0x00000000402838b8       0x90 test/dm/built-in.o

.got            0x0000000040283948        0x8
 .got           0x0000000040283948        0x8 arch/arm/cpu/armv8/start.o
                0x0000000040283948                _GLOBAL_OFFSET_TABLE_

.got.plt        0x0000000040283950       0x18
 .got.plt       0x0000000040283950       0x18 arch/arm/cpu/armv8/start.o
                0x0000000040283968                . = ALIGN (0x8)
                0x0000000040283968                . = .
                0x0000000040283968                . = ALIGN (0x8)

.u_boot_list    0x0000000040283968     0x1df0
 *(SORT(.u_boot_list*))
 .u_boot_list_2_blk_driver_1
                0x0000000040283968        0x0 drivers/built-in.o
 .u_boot_list_2_blk_driver_2_mmc
                0x0000000040283968       0x28 drivers/mmc/built-in.o
                0x0000000040283968                _u_boot_list_2_blk_driver_2_mmc
 .u_boot_list_2_blk_driver_2_usb
                0x0000000040283990       0x28 common/built-in.o
                0x0000000040283990                _u_boot_list_2_blk_driver_2_usb
 .u_boot_list_2_blk_driver_3
                0x00000000402839b8        0x0 drivers/built-in.o
 .u_boot_list_2_cmd_1
                0x00000000402839b8        0x0 cmd/built-in.o
 .u_boot_list_2_cmd_1
                0x00000000402839b8        0x0 common/built-in.o
 .u_boot_list_2_cmd_2_base
                0x00000000402839b8       0x30 cmd/built-in.o
                0x00000000402839b8                _u_boot_list_2_cmd_2_base
 .u_boot_list_2_cmd_2_bdinfo
                0x00000000402839e8       0x30 cmd/built-in.o
                0x00000000402839e8                _u_boot_list_2_cmd_2_bdinfo
 .u_boot_list_2_cmd_2_boot
                0x0000000040283a18       0x30 cmd/built-in.o
                0x0000000040283a18                _u_boot_list_2_cmd_2_boot
 .u_boot_list_2_cmd_2_bootaux
                0x0000000040283a48       0x30 arch/arm/imx-common/built-in.o
                0x0000000040283a48                _u_boot_list_2_cmd_2_bootaux
 .u_boot_list_2_cmd_2_bootd
                0x0000000040283a78       0x30 cmd/built-in.o
                0x0000000040283a78                _u_boot_list_2_cmd_2_bootd
 .u_boot_list_2_cmd_2_bootefi
                0x0000000040283aa8       0x30 cmd/built-in.o
                0x0000000040283aa8                _u_boot_list_2_cmd_2_bootefi
 .u_boot_list_2_cmd_2_bootelf
                0x0000000040283ad8       0x30 cmd/built-in.o
                0x0000000040283ad8                _u_boot_list_2_cmd_2_bootelf
 .u_boot_list_2_cmd_2_booti
                0x0000000040283b08       0x30 cmd/built-in.o
                0x0000000040283b08                _u_boot_list_2_cmd_2_booti
 .u_boot_list_2_cmd_2_bootm
                0x0000000040283b38       0x30 cmd/built-in.o
                0x0000000040283b38                _u_boot_list_2_cmd_2_bootm
 .u_boot_list_2_cmd_2_bootp
                0x0000000040283b68       0x30 cmd/built-in.o
                0x0000000040283b68                _u_boot_list_2_cmd_2_bootp
 .u_boot_list_2_cmd_2_bootvx
                0x0000000040283b98       0x30 cmd/built-in.o
                0x0000000040283b98                _u_boot_list_2_cmd_2_bootvx
 .u_boot_list_2_cmd_2_clocks
                0x0000000040283bc8       0x30 arch/arm/cpu/armv8/built-in.o
                0x0000000040283bc8                _u_boot_list_2_cmd_2_clocks
 .u_boot_list_2_cmd_2_clrlogo
                0x0000000040283bf8       0x30 drivers/built-in.o
                0x0000000040283bf8                _u_boot_list_2_cmd_2_clrlogo
 .u_boot_list_2_cmd_2_cmp
                0x0000000040283c28       0x30 cmd/built-in.o
                0x0000000040283c28                _u_boot_list_2_cmd_2_cmp
 .u_boot_list_2_cmd_2_coninfo
                0x0000000040283c58       0x30 cmd/built-in.o
                0x0000000040283c58                _u_boot_list_2_cmd_2_coninfo
 .u_boot_list_2_cmd_2_cp
                0x0000000040283c88       0x30 cmd/built-in.o
                0x0000000040283c88                _u_boot_list_2_cmd_2_cp
 .u_boot_list_2_cmd_2_dcache
                0x0000000040283cb8       0x30 cmd/built-in.o
                0x0000000040283cb8                _u_boot_list_2_cmd_2_dcache
 .u_boot_list_2_cmd_2_dhcp
                0x0000000040283ce8       0x30 cmd/built-in.o
                0x0000000040283ce8                _u_boot_list_2_cmd_2_dhcp
 .u_boot_list_2_cmd_2_dm
                0x0000000040283d18       0x30 test/dm/built-in.o
                0x0000000040283d18                _u_boot_list_2_cmd_2_dm
 .u_boot_list_2_cmd_2_echo
                0x0000000040283d48       0x30 cmd/built-in.o
                0x0000000040283d48                _u_boot_list_2_cmd_2_echo
 .u_boot_list_2_cmd_2_editenv
                0x0000000040283d78       0x30 cmd/built-in.o
                0x0000000040283d78                _u_boot_list_2_cmd_2_editenv
 .u_boot_list_2_cmd_2_env
                0x0000000040283da8       0x30 cmd/built-in.o
                0x0000000040283da8                _u_boot_list_2_cmd_2_env
 .u_boot_list_2_cmd_2_erase
                0x0000000040283dd8       0x30 cmd/built-in.o
                0x0000000040283dd8                _u_boot_list_2_cmd_2_erase
 .u_boot_list_2_cmd_2_exit
                0x0000000040283e08       0x30 cmd/built-in.o
                0x0000000040283e08                _u_boot_list_2_cmd_2_exit
 .u_boot_list_2_cmd_2_ext2load
                0x0000000040283e38       0x30 cmd/built-in.o
                0x0000000040283e38                _u_boot_list_2_cmd_2_ext2load
 .u_boot_list_2_cmd_2_ext2ls
                0x0000000040283e68       0x30 cmd/built-in.o
                0x0000000040283e68                _u_boot_list_2_cmd_2_ext2ls
 .u_boot_list_2_cmd_2_ext4load
                0x0000000040283e98       0x30 cmd/built-in.o
                0x0000000040283e98                _u_boot_list_2_cmd_2_ext4load
 .u_boot_list_2_cmd_2_ext4ls
                0x0000000040283ec8       0x30 cmd/built-in.o
                0x0000000040283ec8                _u_boot_list_2_cmd_2_ext4ls
 .u_boot_list_2_cmd_2_ext4size
                0x0000000040283ef8       0x30 cmd/built-in.o
                0x0000000040283ef8                _u_boot_list_2_cmd_2_ext4size
 .u_boot_list_2_cmd_2_ext4write
                0x0000000040283f28       0x30 cmd/built-in.o
                0x0000000040283f28                _u_boot_list_2_cmd_2_ext4write
 .u_boot_list_2_cmd_2_false
                0x0000000040283f58       0x30 cmd/built-in.o
                0x0000000040283f58                _u_boot_list_2_cmd_2_false
 .u_boot_list_2_cmd_2_fatinfo
                0x0000000040283f88       0x30 cmd/built-in.o
                0x0000000040283f88                _u_boot_list_2_cmd_2_fatinfo
 .u_boot_list_2_cmd_2_fatload
                0x0000000040283fb8       0x30 cmd/built-in.o
                0x0000000040283fb8                _u_boot_list_2_cmd_2_fatload
 .u_boot_list_2_cmd_2_fatls
                0x0000000040283fe8       0x30 cmd/built-in.o
                0x0000000040283fe8                _u_boot_list_2_cmd_2_fatls
 .u_boot_list_2_cmd_2_fatsize
                0x0000000040284018       0x30 cmd/built-in.o
                0x0000000040284018                _u_boot_list_2_cmd_2_fatsize
 .u_boot_list_2_cmd_2_fdt
                0x0000000040284048       0x30 cmd/built-in.o
                0x0000000040284048                _u_boot_list_2_cmd_2_fdt
 .u_boot_list_2_cmd_2_flinfo
                0x0000000040284078       0x30 cmd/built-in.o
                0x0000000040284078                _u_boot_list_2_cmd_2_flinfo
 .u_boot_list_2_cmd_2_fuse
                0x00000000402840a8       0x30 cmd/built-in.o
                0x00000000402840a8                _u_boot_list_2_cmd_2_fuse
 .u_boot_list_2_cmd_2_go
                0x00000000402840d8       0x30 cmd/built-in.o
                0x00000000402840d8                _u_boot_list_2_cmd_2_go
 .u_boot_list_2_cmd_2_gpio
                0x0000000040284108       0x30 cmd/built-in.o
                0x0000000040284108                _u_boot_list_2_cmd_2_gpio
 .u_boot_list_2_cmd_2_hdp
                0x0000000040284138       0x30 drivers/built-in.o
                0x0000000040284138                _u_boot_list_2_cmd_2_hdp
 .u_boot_list_2_cmd_2_help
                0x0000000040284168       0x30 cmd/built-in.o
                0x0000000040284168                _u_boot_list_2_cmd_2_help
 .u_boot_list_2_cmd_2_i2c
                0x0000000040284198       0x30 cmd/built-in.o
                0x0000000040284198                _u_boot_list_2_cmd_2_i2c
 .u_boot_list_2_cmd_2_icache
                0x00000000402841c8       0x30 cmd/built-in.o
                0x00000000402841c8                _u_boot_list_2_cmd_2_icache
 .u_boot_list_2_cmd_2_iminfo
                0x00000000402841f8       0x30 cmd/built-in.o
                0x00000000402841f8                _u_boot_list_2_cmd_2_iminfo
 .u_boot_list_2_cmd_2_imxtract
                0x0000000040284228       0x30 cmd/built-in.o
                0x0000000040284228                _u_boot_list_2_cmd_2_imxtract
 .u_boot_list_2_cmd_2_itest
                0x0000000040284258       0x30 cmd/built-in.o
                0x0000000040284258                _u_boot_list_2_cmd_2_itest
 .u_boot_list_2_cmd_2_loadb
                0x0000000040284288       0x30 cmd/built-in.o
                0x0000000040284288                _u_boot_list_2_cmd_2_loadb
 .u_boot_list_2_cmd_2_loads
                0x00000000402842b8       0x30 cmd/built-in.o
                0x00000000402842b8                _u_boot_list_2_cmd_2_loads
 .u_boot_list_2_cmd_2_loadx
                0x00000000402842e8       0x30 cmd/built-in.o
                0x00000000402842e8                _u_boot_list_2_cmd_2_loadx
 .u_boot_list_2_cmd_2_loady
                0x0000000040284318       0x30 cmd/built-in.o
                0x0000000040284318                _u_boot_list_2_cmd_2_loady
 .u_boot_list_2_cmd_2_loop
                0x0000000040284348       0x30 cmd/built-in.o
                0x0000000040284348                _u_boot_list_2_cmd_2_loop
 .u_boot_list_2_cmd_2_md
                0x0000000040284378       0x30 cmd/built-in.o
                0x0000000040284378                _u_boot_list_2_cmd_2_md
 .u_boot_list_2_cmd_2_mdio
                0x00000000402843a8       0x30 cmd/built-in.o
                0x00000000402843a8                _u_boot_list_2_cmd_2_mdio
 .u_boot_list_2_cmd_2_mii
                0x00000000402843d8       0x30 cmd/built-in.o
                0x00000000402843d8                _u_boot_list_2_cmd_2_mii
 .u_boot_list_2_cmd_2_mm
                0x0000000040284408       0x30 cmd/built-in.o
                0x0000000040284408                _u_boot_list_2_cmd_2_mm
 .u_boot_list_2_cmd_2_mmc
                0x0000000040284438       0x30 cmd/built-in.o
                0x0000000040284438                _u_boot_list_2_cmd_2_mmc
 .u_boot_list_2_cmd_2_mmcinfo
                0x0000000040284468       0x30 cmd/built-in.o
                0x0000000040284468                _u_boot_list_2_cmd_2_mmcinfo
 .u_boot_list_2_cmd_2_mw
                0x0000000040284498       0x30 cmd/built-in.o
                0x0000000040284498                _u_boot_list_2_cmd_2_mw
 .u_boot_list_2_cmd_2_nfs
                0x00000000402844c8       0x30 cmd/built-in.o
                0x00000000402844c8                _u_boot_list_2_cmd_2_nfs
 .u_boot_list_2_cmd_2_nm
                0x00000000402844f8       0x30 cmd/built-in.o
                0x00000000402844f8                _u_boot_list_2_cmd_2_nm
 .u_boot_list_2_cmd_2_ping
                0x0000000040284528       0x30 cmd/built-in.o
                0x0000000040284528                _u_boot_list_2_cmd_2_ping
 .u_boot_list_2_cmd_2_pmic
                0x0000000040284558       0x30 cmd/built-in.o
                0x0000000040284558                _u_boot_list_2_cmd_2_pmic
 .u_boot_list_2_cmd_2_printenv
                0x0000000040284588       0x30 cmd/built-in.o
                0x0000000040284588                _u_boot_list_2_cmd_2_printenv
 .u_boot_list_2_cmd_2_protect
                0x00000000402845b8       0x30 cmd/built-in.o
                0x00000000402845b8                _u_boot_list_2_cmd_2_protect
 .u_boot_list_2_cmd_2_question_mark
                0x00000000402845e8       0x30 cmd/built-in.o
                0x00000000402845e8                _u_boot_list_2_cmd_2_question_mark
 .u_boot_list_2_cmd_2_regulator
                0x0000000040284618       0x30 cmd/built-in.o
                0x0000000040284618                _u_boot_list_2_cmd_2_regulator
 .u_boot_list_2_cmd_2_reset
                0x0000000040284648       0x30 cmd/built-in.o
                0x0000000040284648                _u_boot_list_2_cmd_2_reset
 .u_boot_list_2_cmd_2_run
                0x0000000040284678       0x30 cmd/built-in.o
                0x0000000040284678                _u_boot_list_2_cmd_2_run
 .u_boot_list_2_cmd_2_saveenv
                0x00000000402846a8       0x30 cmd/built-in.o
                0x00000000402846a8                _u_boot_list_2_cmd_2_saveenv
 .u_boot_list_2_cmd_2_setenv
                0x00000000402846d8       0x30 cmd/built-in.o
                0x00000000402846d8                _u_boot_list_2_cmd_2_setenv
 .u_boot_list_2_cmd_2_setexpr
                0x0000000040284708       0x30 cmd/built-in.o
                0x0000000040284708                _u_boot_list_2_cmd_2_setexpr
 .u_boot_list_2_cmd_2_sf
                0x0000000040284738       0x30 cmd/built-in.o
                0x0000000040284738                _u_boot_list_2_cmd_2_sf
 .u_boot_list_2_cmd_2_showvar
                0x0000000040284768       0x30 common/built-in.o
                0x0000000040284768                _u_boot_list_2_cmd_2_showvar
 .u_boot_list_2_cmd_2_sleep
                0x0000000040284798       0x30 cmd/built-in.o
                0x0000000040284798                _u_boot_list_2_cmd_2_sleep
 .u_boot_list_2_cmd_2_source
                0x00000000402847c8       0x30 cmd/built-in.o
                0x00000000402847c8                _u_boot_list_2_cmd_2_source
 .u_boot_list_2_cmd_2_test
                0x00000000402847f8       0x30 cmd/built-in.o
                0x00000000402847f8                _u_boot_list_2_cmd_2_test
 .u_boot_list_2_cmd_2_tftpboot
                0x0000000040284828       0x30 cmd/built-in.o
                0x0000000040284828                _u_boot_list_2_cmd_2_tftpboot
 .u_boot_list_2_cmd_2_true
                0x0000000040284858       0x30 cmd/built-in.o
                0x0000000040284858                _u_boot_list_2_cmd_2_true
 .u_boot_list_2_cmd_2_ums
                0x0000000040284888       0x30 cmd/built-in.o
                0x0000000040284888                _u_boot_list_2_cmd_2_ums
 .u_boot_list_2_cmd_2_usb
                0x00000000402848b8       0x30 cmd/built-in.o
                0x00000000402848b8                _u_boot_list_2_cmd_2_usb
 .u_boot_list_2_cmd_2_usbboot
                0x00000000402848e8       0x30 cmd/built-in.o
                0x00000000402848e8                _u_boot_list_2_cmd_2_usbboot
 .u_boot_list_2_cmd_2_version
                0x0000000040284918       0x30 cmd/built-in.o
                0x0000000040284918                _u_boot_list_2_cmd_2_version
 .u_boot_list_2_cmd_3
                0x0000000040284948        0x0 cmd/built-in.o
 .u_boot_list_2_cmd_3
                0x0000000040284948        0x0 common/built-in.o
 .u_boot_list_2_driver_1
                0x0000000040284948        0x0 drivers/built-in.o
 .u_boot_list_2_driver_2_fecmxc_gem
                0x0000000040284948       0x78 drivers/net/built-in.o
                0x0000000040284948                _u_boot_list_2_driver_2_fecmxc_gem
 .u_boot_list_2_driver_2_fixed_regulator
                0x00000000402849c0       0x78 drivers/power/regulator/built-in.o
                0x00000000402849c0                _u_boot_list_2_driver_2_fixed_regulator
 .u_boot_list_2_driver_2_fsl_esdhc
                0x0000000040284a38       0x78 drivers/mmc/built-in.o
                0x0000000040284a38                _u_boot_list_2_driver_2_fsl_esdhc
 .u_boot_list_2_driver_2_gpio_mxc
                0x0000000040284ab0       0x78 drivers/gpio/built-in.o
                0x0000000040284ab0                _u_boot_list_2_driver_2_gpio_mxc
 .u_boot_list_2_driver_2_gpio_regulator
                0x0000000040284b28       0x78 drivers/power/regulator/built-in.o
                0x0000000040284b28                _u_boot_list_2_driver_2_gpio_regulator
 .u_boot_list_2_driver_2_i2c_generic_chip_drv
                0x0000000040284ba0       0x78 drivers/i2c/built-in.o
                0x0000000040284ba0                _u_boot_list_2_driver_2_i2c_generic_chip_drv
 .u_boot_list_2_driver_2_i2c_mxc
                0x0000000040284c18       0x78 drivers/i2c/built-in.o
                0x0000000040284c18                _u_boot_list_2_driver_2_i2c_mxc
 .u_boot_list_2_driver_2_imx8mq_pinctrl
                0x0000000040284c90       0x78 drivers/built-in.o
                0x0000000040284c90                _u_boot_list_2_driver_2_imx8mq_pinctrl
 .u_boot_list_2_driver_2_mmc
                0x0000000040284d08       0x78 drivers/mmc/built-in.o
                0x0000000040284d08                _u_boot_list_2_driver_2_mmc
 .u_boot_list_2_driver_2_nxp_tmu
                0x0000000040284d80       0x78 drivers/built-in.o
                0x0000000040284d80                _u_boot_list_2_driver_2_nxp_tmu
 .u_boot_list_2_driver_2_pfuze100_regulator
                0x0000000040284df8       0x78 drivers/power/regulator/built-in.o
                0x0000000040284df8                _u_boot_list_2_driver_2_pfuze100_regulator
 .u_boot_list_2_driver_2_pinconfig_generic
                0x0000000040284e70       0x78 drivers/built-in.o
                0x0000000040284e70                _u_boot_list_2_driver_2_pinconfig_generic
 .u_boot_list_2_driver_2_pmic_pfuze100
                0x0000000040284ee8       0x78 drivers/power/pmic/built-in.o
                0x0000000040284ee8                _u_boot_list_2_driver_2_pmic_pfuze100
 .u_boot_list_2_driver_2_root_driver
                0x0000000040284f60       0x78 drivers/built-in.o
                0x0000000040284f60                _u_boot_list_2_driver_2_root_driver
 .u_boot_list_2_driver_2_simple_bus_drv
                0x0000000040284fd8       0x78 drivers/built-in.o
                0x0000000040284fd8                _u_boot_list_2_driver_2_simple_bus_drv
 .u_boot_list_2_driver_3
                0x0000000040285050        0x0 drivers/built-in.o
 .u_boot_list_2_driver_info_1
                0x0000000040285050        0x0 drivers/built-in.o
 .u_boot_list_2_driver_info_3
                0x0000000040285050        0x0 drivers/built-in.o
 .u_boot_list_2_env_clbk_1
                0x0000000040285050        0x0 common/built-in.o
 .u_boot_list_2_env_clbk_2_baudrate
                0x0000000040285050       0x10 drivers/serial/built-in.o
                0x0000000040285050                _u_boot_list_2_env_clbk_2_baudrate
 .u_boot_list_2_env_clbk_2_bootfile
                0x0000000040285060       0x10 net/built-in.o
                0x0000000040285060                _u_boot_list_2_env_clbk_2_bootfile
 .u_boot_list_2_env_clbk_2_callbacks
                0x0000000040285070       0x10 common/built-in.o
                0x0000000040285070                _u_boot_list_2_env_clbk_2_callbacks
 .u_boot_list_2_env_clbk_2_console
                0x0000000040285080       0x10 common/built-in.o
                0x0000000040285080                _u_boot_list_2_env_clbk_2_console
 .u_boot_list_2_env_clbk_2_ethaddr
                0x0000000040285090       0x10 net/built-in.o
                0x0000000040285090                _u_boot_list_2_env_clbk_2_ethaddr
 .u_boot_list_2_env_clbk_2_flags
                0x00000000402850a0       0x10 common/built-in.o
                0x00000000402850a0                _u_boot_list_2_env_clbk_2_flags
 .u_boot_list_2_env_clbk_2_gatewayip
                0x00000000402850b0       0x10 net/built-in.o
                0x00000000402850b0                _u_boot_list_2_env_clbk_2_gatewayip
 .u_boot_list_2_env_clbk_2_ipaddr
                0x00000000402850c0       0x10 net/built-in.o
                0x00000000402850c0                _u_boot_list_2_env_clbk_2_ipaddr
 .u_boot_list_2_env_clbk_2_loadaddr
                0x00000000402850d0       0x10 common/built-in.o
                0x00000000402850d0                _u_boot_list_2_env_clbk_2_loadaddr
 .u_boot_list_2_env_clbk_2_netmask
                0x00000000402850e0       0x10 net/built-in.o
                0x00000000402850e0                _u_boot_list_2_env_clbk_2_netmask
 .u_boot_list_2_env_clbk_2_nvlan
                0x00000000402850f0       0x10 net/built-in.o
                0x00000000402850f0                _u_boot_list_2_env_clbk_2_nvlan
 .u_boot_list_2_env_clbk_2_serverip
                0x0000000040285100       0x10 net/built-in.o
                0x0000000040285100                _u_boot_list_2_env_clbk_2_serverip
 .u_boot_list_2_env_clbk_2_vlan
                0x0000000040285110       0x10 net/built-in.o
                0x0000000040285110                _u_boot_list_2_env_clbk_2_vlan
 .u_boot_list_2_env_clbk_3
                0x0000000040285120        0x0 common/built-in.o
 .u_boot_list_2_fit_loadable_1
                0x0000000040285120        0x0 common/built-in.o
 .u_boot_list_2_fit_loadable_3
                0x0000000040285120        0x0 common/built-in.o
 .u_boot_list_2_g_dnl_bind_callbacks_1
                0x0000000040285120        0x0 drivers/usb/gadget/built-in.o
 .u_boot_list_2_g_dnl_bind_callbacks_2___usb_function_name_usb_dnl_ums
                0x0000000040285120       0x10 drivers/usb/gadget/built-in.o
                0x0000000040285120                _u_boot_list_2_g_dnl_bind_callbacks_2___usb_function_name_usb_dnl_ums
 .u_boot_list_2_part_driver_1
                0x0000000040285130        0x0 disk/built-in.o
 .u_boot_list_2_part_driver_2_dos
                0x0000000040285130       0x28 disk/built-in.o
                0x0000000040285130                _u_boot_list_2_part_driver_2_dos
 .u_boot_list_2_part_driver_3
                0x0000000040285158        0x0 disk/built-in.o
 .u_boot_list_2_uclass_1
                0x0000000040285158        0x0 drivers/built-in.o
 .u_boot_list_2_uclass_2_eth
                0x0000000040285158       0x80 net/built-in.o
                0x0000000040285158                _u_boot_list_2_uclass_2_eth
 .u_boot_list_2_uclass_2_gpio
                0x00000000402851d8       0x80 drivers/gpio/built-in.o
                0x00000000402851d8                _u_boot_list_2_uclass_2_gpio
 .u_boot_list_2_uclass_2_i2c
                0x0000000040285258       0x80 drivers/i2c/built-in.o
                0x0000000040285258                _u_boot_list_2_uclass_2_i2c
 .u_boot_list_2_uclass_2_i2c_generic
                0x00000000402852d8       0x80 drivers/i2c/built-in.o
                0x00000000402852d8                _u_boot_list_2_uclass_2_i2c_generic
 .u_boot_list_2_uclass_2_mmc
                0x0000000040285358       0x80 drivers/mmc/built-in.o
                0x0000000040285358                _u_boot_list_2_uclass_2_mmc
 .u_boot_list_2_uclass_2_pinconfig
                0x00000000402853d8       0x80 drivers/built-in.o
                0x00000000402853d8                _u_boot_list_2_uclass_2_pinconfig
 .u_boot_list_2_uclass_2_pinctrl
                0x0000000040285458       0x80 drivers/built-in.o
                0x0000000040285458                _u_boot_list_2_uclass_2_pinctrl
 .u_boot_list_2_uclass_2_pmic
                0x00000000402854d8       0x80 drivers/power/pmic/built-in.o
                0x00000000402854d8                _u_boot_list_2_uclass_2_pmic
 .u_boot_list_2_uclass_2_regulator
                0x0000000040285558       0x80 drivers/power/regulator/built-in.o
                0x0000000040285558                _u_boot_list_2_uclass_2_regulator
 .u_boot_list_2_uclass_2_root
                0x00000000402855d8       0x80 drivers/built-in.o
                0x00000000402855d8                _u_boot_list_2_uclass_2_root
 .u_boot_list_2_uclass_2_simple_bus
                0x0000000040285658       0x80 drivers/built-in.o
                0x0000000040285658                _u_boot_list_2_uclass_2_simple_bus
 .u_boot_list_2_uclass_2_thermal
                0x00000000402856d8       0x80 drivers/built-in.o
                0x00000000402856d8                _u_boot_list_2_uclass_2_thermal
 .u_boot_list_2_uclass_3
                0x0000000040285758        0x0 drivers/built-in.o
                0x0000000040285758                . = ALIGN (0x8)

.efi_runtime    0x0000000040285758      0x1f8
                0x0000000040285758                __efi_runtime_start = .
 *(efi_runtime_text)
 efi_runtime_text
                0x0000000040285758       0x84 arch/arm/cpu/armv8/built-in.o
                0x0000000040285758                smc_call
                0x000000004028579c                psci_system_reset
                0x00000000402857bc                psci_system_off
 efi_runtime_text
                0x00000000402857dc       0x28 lib/built-in.o
                0x00000000402857dc                efi_reset_system
                0x00000000402857e0                efi_get_time
 *(efi_runtime_data)
 *fill*         0x0000000040285804        0x4 
 efi_runtime_data
                0x0000000040285808      0x148 lib/built-in.o
                0x0000000040285808                systab
                0x00000000402858c8                efi_runtime_services
                0x0000000040285950                __efi_runtime_stop = .

.efi_runtime_rel
                0x0000000040285950      0x1b0
                0x0000000040285950                __efi_runtime_rel_start = .
 *(.relaefi_runtime_text)
 *(.relaefi_runtime_data)
 .relaefi_runtime_data
                0x0000000040285950      0x1b0 arch/arm/cpu/armv8/start.o
                0x0000000040285b00                __efi_runtime_rel_stop = .
                0x0000000040285b00                . = ALIGN (0x8)

.image_copy_end
                0x0000000040285b00        0x0
 *(.__image_copy_end)
 .__image_copy_end
                0x0000000040285b00        0x0 arch/arm/lib/built-in.o
                0x0000000040285b00                . = ALIGN (0x8)

.rel_dyn_start  0x0000000040285b00        0x0
 *(.__rel_dyn_start)
 .__rel_dyn_start
                0x0000000040285b00        0x0 arch/arm/lib/built-in.o

.rela.dyn       0x0000000040285b00     0xa8d8
 *(.rela*)
 .rela.got      0x0000000040285b00        0x0 arch/arm/cpu/armv8/start.o
 .rela.plt      0x0000000040285b00        0x0 arch/arm/cpu/armv8/start.o
 .rela.bss      0x0000000040285b00        0x0 arch/arm/cpu/armv8/start.o
 .rela.data.rel.ro
                0x0000000040285b00        0x0 arch/arm/cpu/armv8/start.o
 .rela.ifunc    0x0000000040285b00        0x0 arch/arm/cpu/armv8/start.o
 .rela.rodata   0x0000000040285b00       0x90 arch/arm/cpu/armv8/start.o
 .rela.u_boot_list_2_cmd_2_clocks
                0x0000000040285b90       0x60 arch/arm/cpu/armv8/start.o
 .rela.data.mem_map
                0x0000000040285bf0       0x18 arch/arm/cpu/armv8/start.o
 .rela.rodata.CSWTCH.7
                0x0000000040285c08      0x4b0 arch/arm/cpu/armv8/start.o
 .rela.u_boot_list_2_cmd_2_bootaux
                0x00000000402860b8       0x60 arch/arm/cpu/armv8/start.o
 .rela.text     0x0000000040286118       0x90 arch/arm/cpu/armv8/start.o
 .rela.rodata.displays
                0x00000000402861a8       0x18 arch/arm/cpu/armv8/start.o
 .rela.rodata.op_table
                0x00000000402861c0      0x138 arch/arm/cpu/armv8/start.o
 .rela.rodata.desc_and_len_tbl
                0x00000000402862f8       0x90 arch/arm/cpu/armv8/start.o
 .rela.rodata.reg_0_5_desc_tbl
                0x0000000040286388       0x90 arch/arm/cpu/armv8/start.o
 .rela.rodata.reg_0_desc_tbl
                0x0000000040286418       0xf0 arch/arm/cpu/armv8/start.o
 .rela.rodata.reg_1_desc_tbl
                0x0000000040286508      0x180 arch/arm/cpu/armv8/start.o
 .rela.rodata.reg_2_desc_tbl
                0x0000000040286688       0x18 arch/arm/cpu/armv8/start.o
 .rela.rodata.reg_3_desc_tbl
                0x00000000402866a0       0x48 arch/arm/cpu/armv8/start.o
 .rela.rodata.reg_4_desc_tbl
                0x00000000402866e8      0x120 arch/arm/cpu/armv8/start.o
 .rela.rodata.reg_5_desc_tbl
                0x0000000040286808      0x120 arch/arm/cpu/armv8/start.o
 .rela.rodata.op_adv
                0x0000000040286928      0x180 arch/arm/cpu/armv8/start.o
 .rela.rodata.CSWTCH.35
                0x0000000040286aa8      0x138 arch/arm/cpu/armv8/start.o
 .rela.u_boot_list_2_cmd_2_go
                0x0000000040286be0       0x60 arch/arm/cpu/armv8/start.o
 .rela.u_boot_list_2_cmd_2_reset
                0x0000000040286c40       0x60 arch/arm/cpu/armv8/start.o
 .rela.data.cmd_bootm_sub
                0x0000000040286ca0      0x288 arch/arm/cpu/armv8/start.o
 .rela.u_boot_list_2_cmd_2_boot
                0x0000000040286f28       0x60 arch/arm/cpu/armv8/start.o
 .rela.u_boot_list_2_cmd_2_bootd
                0x0000000040286f88       0x60 arch/arm/cpu/armv8/start.o
 .rela.u_boot_list_2_cmd_2_bootm
                0x0000000040286fe8       0x60 arch/arm/cpu/armv8/start.o
 .rela.u_boot_list_2_cmd_2_iminfo
                0x0000000040287048       0x60 arch/arm/cpu/armv8/start.o
 .rela.u_boot_list_2_cmd_2_help
                0x00000000402870a8       0x60 arch/arm/cpu/armv8/start.o
 .rela.u_boot_list_2_cmd_2_question_mark
                0x0000000040287108       0x60 arch/arm/cpu/armv8/start.o
 .rela.u_boot_list_2_cmd_2_version
                0x0000000040287168       0x60 arch/arm/cpu/armv8/start.o
 .rela.u_boot_list_2_cmd_2_source
                0x00000000402871c8       0x60 arch/arm/cpu/armv8/start.o
 .rela.u_boot_list_2_cmd_2_bdinfo
                0x0000000040287228       0x60 arch/arm/cpu/armv8/start.o
 .rela.data.bootefi_device_obj
                0x0000000040287288       0x48 arch/arm/cpu/armv8/start.o
 .rela.data.loaded_image_info
                0x00000000402872d0       0x30 arch/arm/cpu/armv8/start.o
 .rela.data.loaded_image_info_obj
                0x0000000040287300       0x78 arch/arm/cpu/armv8/start.o
 .rela.u_boot_list_2_cmd_2_bootefi
                0x0000000040287378       0x60 arch/arm/cpu/armv8/start.o
 .rela.u_boot_list_2_cmd_2_booti
                0x00000000402873d8       0x60 arch/arm/cpu/armv8/start.o
 .rela.u_boot_list_2_cmd_2_dcache
                0x0000000040287438       0x60 arch/arm/cpu/armv8/start.o
 .rela.u_boot_list_2_cmd_2_icache
                0x0000000040287498       0x60 arch/arm/cpu/armv8/start.o
 .rela.u_boot_list_2_cmd_2_coninfo
                0x00000000402874f8       0x60 arch/arm/cpu/armv8/start.o
 .rela.u_boot_list_2_cmd_2_echo
                0x0000000040287558       0x60 arch/arm/cpu/armv8/start.o
 .rela.u_boot_list_2_cmd_2_bootelf
                0x00000000402875b8       0x60 arch/arm/cpu/armv8/start.o
 .rela.u_boot_list_2_cmd_2_bootvx
                0x0000000040287618       0x60 arch/arm/cpu/armv8/start.o
 .rela.u_boot_list_2_cmd_2_exit
                0x0000000040287678       0x60 arch/arm/cpu/armv8/start.o
 .rela.u_boot_list_2_cmd_2_ext4load
                0x00000000402876d8       0x60 arch/arm/cpu/armv8/start.o
 .rela.u_boot_list_2_cmd_2_ext4ls
                0x0000000040287738       0x60 arch/arm/cpu/armv8/start.o
 .rela.u_boot_list_2_cmd_2_ext4size
                0x0000000040287798       0x60 arch/arm/cpu/armv8/start.o
 .rela.u_boot_list_2_cmd_2_ext4write
                0x00000000402877f8       0x60 arch/arm/cpu/armv8/start.o
 .rela.u_boot_list_2_cmd_2_ext2load
                0x0000000040287858       0x60 arch/arm/cpu/armv8/start.o
 .rela.u_boot_list_2_cmd_2_ext2ls
                0x00000000402878b8       0x60 arch/arm/cpu/armv8/start.o
 .rela.u_boot_list_2_cmd_2_fatinfo
                0x0000000040287918       0x60 arch/arm/cpu/armv8/start.o
 .rela.u_boot_list_2_cmd_2_fatload
                0x0000000040287978       0x60 arch/arm/cpu/armv8/start.o
 .rela.u_boot_list_2_cmd_2_fatls
                0x00000000402879d8       0x60 arch/arm/cpu/armv8/start.o
 .rela.u_boot_list_2_cmd_2_fatsize
                0x0000000040287a38       0x60 arch/arm/cpu/armv8/start.o
 .rela.u_boot_list_2_cmd_2_fdt
                0x0000000040287a98       0x60 arch/arm/cpu/armv8/start.o
 .rela.u_boot_list_2_cmd_2_erase
                0x0000000040287af8       0x60 arch/arm/cpu/armv8/start.o
 .rela.u_boot_list_2_cmd_2_flinfo
                0x0000000040287b58       0x60 arch/arm/cpu/armv8/start.o
 .rela.u_boot_list_2_cmd_2_protect
                0x0000000040287bb8       0x60 arch/arm/cpu/armv8/start.o
 .rela.u_boot_list_2_cmd_2_fuse
                0x0000000040287c18       0x60 arch/arm/cpu/armv8/start.o
 .rela.u_boot_list_2_cmd_2_gpio
                0x0000000040287c78       0x60 arch/arm/cpu/armv8/start.o
 .rela.data.cmd_i2c_sub
                0x0000000040287cd8      0x5a0 arch/arm/cpu/armv8/start.o
 .rela.u_boot_list_2_cmd_2_i2c
                0x0000000040288278       0x60 arch/arm/cpu/armv8/start.o
 .rela.u_boot_list_2_cmd_2_itest
                0x00000000402882d8       0x60 arch/arm/cpu/armv8/start.o
 .rela.u_boot_list_2_cmd_2_loadb
                0x0000000040288338       0x60 arch/arm/cpu/armv8/start.o
 .rela.u_boot_list_2_cmd_2_loads
                0x0000000040288398       0x60 arch/arm/cpu/armv8/start.o
 .rela.u_boot_list_2_cmd_2_loadx
                0x00000000402883f8       0x60 arch/arm/cpu/armv8/start.o
 .rela.u_boot_list_2_cmd_2_loady
                0x0000000040288458       0x60 arch/arm/cpu/armv8/start.o
 .rela.u_boot_list_2_cmd_2_base
                0x00000000402884b8       0x60 arch/arm/cpu/armv8/start.o
 .rela.u_boot_list_2_cmd_2_cmp
                0x0000000040288518       0x60 arch/arm/cpu/armv8/start.o
 .rela.u_boot_list_2_cmd_2_cp
                0x0000000040288578       0x60 arch/arm/cpu/armv8/start.o
 .rela.u_boot_list_2_cmd_2_loop
                0x00000000402885d8       0x60 arch/arm/cpu/armv8/start.o
 .rela.u_boot_list_2_cmd_2_md
                0x0000000040288638       0x60 arch/arm/cpu/armv8/start.o
 .rela.u_boot_list_2_cmd_2_mm
                0x0000000040288698       0x60 arch/arm/cpu/armv8/start.o
 .rela.u_boot_list_2_cmd_2_mw
                0x00000000402886f8       0x60 arch/arm/cpu/armv8/start.o
 .rela.u_boot_list_2_cmd_2_nm
                0x0000000040288758       0x60 arch/arm/cpu/armv8/start.o
 .rela.u_boot_list_2_cmd_2_mii
                0x00000000402887b8       0x60 arch/arm/cpu/armv8/start.o
 .rela.u_boot_list_2_cmd_2_mdio
                0x0000000040288818       0x60 arch/arm/cpu/armv8/start.o
 .rela.u_boot_list_2_cmd_2_sleep
                0x0000000040288878       0x60 arch/arm/cpu/armv8/start.o
 .rela.data.cmd_mmc
                0x00000000402888d8      0x540 arch/arm/cpu/armv8/start.o
 .rela.u_boot_list_2_cmd_2_mmc
                0x0000000040288e18       0x60 arch/arm/cpu/armv8/start.o
 .rela.u_boot_list_2_cmd_2_mmcinfo
                0x0000000040288e78       0x60 arch/arm/cpu/armv8/start.o
 .rela.u_boot_list_2_cmd_2_bootp
                0x0000000040288ed8       0x60 arch/arm/cpu/armv8/start.o
 .rela.u_boot_list_2_cmd_2_dhcp
                0x0000000040288f38       0x60 arch/arm/cpu/armv8/start.o
 .rela.u_boot_list_2_cmd_2_nfs
                0x0000000040288f98       0x60 arch/arm/cpu/armv8/start.o
 .rela.u_boot_list_2_cmd_2_ping
                0x0000000040288ff8       0x60 arch/arm/cpu/armv8/start.o
 .rela.u_boot_list_2_cmd_2_tftpboot
                0x0000000040289058       0x60 arch/arm/cpu/armv8/start.o
 .rela.u_boot_list_2_cmd_2_sf
                0x00000000402890b8       0x60 arch/arm/cpu/armv8/start.o
 .rela.u_boot_list_2_cmd_2_setexpr
                0x0000000040289118       0x60 arch/arm/cpu/armv8/start.o
 .rela.u_boot_list_2_cmd_2_false
                0x0000000040289178       0x48 arch/arm/cpu/armv8/start.o
 .rela.u_boot_list_2_cmd_2_test
                0x00000000402891c0       0x60 arch/arm/cpu/armv8/start.o
 .rela.u_boot_list_2_cmd_2_true
                0x0000000040289220       0x48 arch/arm/cpu/armv8/start.o
 .rela.u_boot_list_2_cmd_2_usb
                0x0000000040289268       0x60 arch/arm/cpu/armv8/start.o
 .rela.u_boot_list_2_cmd_2_usbboot
                0x00000000402892c8       0x60 arch/arm/cpu/armv8/start.o
 .rela.u_boot_list_2_cmd_2_ums
                0x0000000040289328       0x60 arch/arm/cpu/armv8/start.o
 .rela.u_boot_list_2_cmd_2_imxtract
                0x0000000040289388       0x60 arch/arm/cpu/armv8/start.o
 .rela.data.subcmd
                0x00000000402893e8      0x540 arch/arm/cpu/armv8/start.o
 .rela.u_boot_list_2_cmd_2_pmic
                0x0000000040289928       0x60 arch/arm/cpu/armv8/start.o
 .rela.u_boot_list_2_cmd_2_regulator
                0x0000000040289988       0x60 arch/arm/cpu/armv8/start.o
 .rela.data.cmd_env_sub
                0x00000000402899e8      0x300 arch/arm/cpu/armv8/start.o
 .rela.u_boot_list_2_cmd_2_editenv
                0x0000000040289ce8       0x78 arch/arm/cpu/armv8/start.o
 .rela.u_boot_list_2_cmd_2_env
                0x0000000040289d60       0x60 arch/arm/cpu/armv8/start.o
 .rela.u_boot_list_2_cmd_2_printenv
                0x0000000040289dc0       0x78 arch/arm/cpu/armv8/start.o
 .rela.u_boot_list_2_cmd_2_run
                0x0000000040289e38       0x78 arch/arm/cpu/armv8/start.o
 .rela.u_boot_list_2_cmd_2_saveenv
                0x0000000040289eb0       0x60 arch/arm/cpu/armv8/start.o
 .rela.u_boot_list_2_cmd_2_setenv
                0x0000000040289f10       0x78 arch/arm/cpu/armv8/start.o
 .rela.rodata.init_sequence_f
                0x0000000040289f88      0x3a8 arch/arm/cpu/armv8/start.o
 .rela.rodata.boot_os
                0x000000004028a330       0x90 arch/arm/cpu/armv8/start.o
 .rela.rodata.table_info
                0x000000004028a3c0        0x0 arch/arm/cpu/armv8/start.o
 .rela.rodata.uimage_arch
                0x000000004028a3c0      0x4e0 arch/arm/cpu/armv8/start.o
 .rela.rodata.uimage_comp
                0x000000004028a8a0      0x150 arch/arm/cpu/armv8/start.o
 .rela.rodata.uimage_os
                0x000000004028a9f0      0x1e0 arch/arm/cpu/armv8/start.o
 .rela.rodata.uimage_type
                0x000000004028abd0      0x600 arch/arm/cpu/armv8/start.o
 .rela.rodata.CSWTCH.125
                0x000000004028b1d0      0x288 arch/arm/cpu/armv8/start.o
 .rela.rodata.CSWTCH.27
                0x000000004028b458       0xc0 arch/arm/cpu/armv8/start.o
 .rela.data.hash_algo
                0x000000004028b518        0x0 arch/arm/cpu/armv8/start.o
 .rela.data.reserved_list
                0x000000004028b518      0x108 arch/arm/cpu/armv8/start.o
 .rela.u_boot_list_2_cmd_2_showvar
                0x000000004028b620       0x60 arch/arm/cpu/armv8/start.o
 .rela.data.init_sequence_r
                0x000000004028b680      0x2b8 arch/arm/cpu/armv8/start.o
 .rela.u_boot_list_2_env_clbk_2_callbacks
                0x000000004028b938       0x30 arch/arm/cpu/armv8/start.o
 .rela.u_boot_list_2_env_clbk_2_flags
                0x000000004028b968       0x30 arch/arm/cpu/armv8/start.o
 .rela.data.env_name_spec
                0x000000004028b998       0x18 arch/arm/cpu/armv8/start.o
 .rela.data.of_busses
                0x000000004028b9b0       0x78 arch/arm/cpu/armv8/start.o
 .rela.data.usb_scan_list
                0x000000004028ba28       0x30 arch/arm/cpu/armv8/start.o
 .rela.u_boot_list_2_blk_driver_2_usb
                0x000000004028ba58       0x30 arch/arm/cpu/armv8/start.o
 .rela.data.env_htab
                0x000000004028ba88       0x18 arch/arm/cpu/armv8/start.o
 .rela.u_boot_list_2_env_clbk_2_console
                0x000000004028baa0       0x30 arch/arm/cpu/armv8/start.o
 .rela.data.av_
                0x000000004028bad0     0x1800 arch/arm/cpu/armv8/start.o
 .rela.u_boot_list_2_env_clbk_2_loadaddr
                0x000000004028d2d0       0x30 arch/arm/cpu/armv8/start.o
 .rela.data.stdio_names
                0x000000004028d300       0x48 arch/arm/cpu/armv8/start.o
 .rela.u_boot_list_2_part_driver_2_dos
                0x000000004028d348       0x60 arch/arm/cpu/armv8/start.o
 .rela.rodata.root_info
                0x000000004028d3a8       0x18 arch/arm/cpu/armv8/start.o
 .rela.rodata.generic_simple_bus_ids
                0x000000004028d3c0       0x30 arch/arm/cpu/armv8/start.o
 .rela.rodata.imx_pinctrl_ops
                0x000000004028d3f0       0x18 arch/arm/cpu/armv8/start.o
 .rela.rodata.imx8m_pinctrl_match
                0x000000004028d408       0x30 arch/arm/cpu/armv8/start.o
 .rela.rodata.kbd_to_ansi364
                0x000000004028d438        0x0 arch/arm/cpu/armv8/start.o
 .rela.rodata.nxp_tmu_ids
                0x000000004028d438       0x18 arch/arm/cpu/armv8/start.o
 .rela.rodata.nxp_tmu_ops
                0x000000004028d450       0x18 arch/arm/cpu/armv8/start.o
 .rela.u_boot_list_2_driver_2_root_driver
                0x000000004028d468       0x18 arch/arm/cpu/armv8/start.o
 .rela.u_boot_list_2_uclass_2_root
                0x000000004028d480       0x18 arch/arm/cpu/armv8/start.o
 .rela.u_boot_list_2_driver_2_simple_bus_drv
                0x000000004028d498       0x30 arch/arm/cpu/armv8/start.o
 .rela.u_boot_list_2_uclass_2_simple_bus
                0x000000004028d4c8       0x30 arch/arm/cpu/armv8/start.o
 .rela.u_boot_list_2_driver_2_pinconfig_generic
                0x000000004028d4f8       0x18 arch/arm/cpu/armv8/start.o
 .rela.u_boot_list_2_uclass_2_pinconfig
                0x000000004028d510       0x30 arch/arm/cpu/armv8/start.o
 .rela.u_boot_list_2_uclass_2_pinctrl
                0x000000004028d540       0x30 arch/arm/cpu/armv8/start.o
 .rela.u_boot_list_2_driver_2_imx8mq_pinctrl
                0x000000004028d570       0x78 arch/arm/cpu/armv8/start.o
 .rela.u_boot_list_2_cmd_2_clrlogo
                0x000000004028d5e8       0x60 arch/arm/cpu/armv8/start.o
 .rela.u_boot_list_2_cmd_2_hdp
                0x000000004028d648       0x60 arch/arm/cpu/armv8/start.o
 .rela.data.kbd_entry
                0x000000004028d6a8        0x0 arch/arm/cpu/armv8/start.o
 .rela.u_boot_list_2_uclass_2_thermal
                0x000000004028d6a8       0x18 arch/arm/cpu/armv8/start.o
 .rela.u_boot_list_2_driver_2_nxp_tmu
                0x000000004028d6c0       0x90 arch/arm/cpu/armv8/start.o
 .rela.rodata.gpio_function
                0x000000004028d750       0x78 arch/arm/cpu/armv8/start.o
 .rela.rodata.gpio_mxc_ops
                0x000000004028d7c8       0x78 arch/arm/cpu/armv8/start.o
 .rela.rodata.mxc_gpio_ids
                0x000000004028d840       0x18 arch/arm/cpu/armv8/start.o
 .rela.u_boot_list_2_uclass_2_gpio
                0x000000004028d858       0x48 arch/arm/cpu/armv8/start.o
 .rela.u_boot_list_2_driver_2_gpio_mxc
                0x000000004028d8a0       0x78 arch/arm/cpu/armv8/start.o
 .rela.rodata.mxc_i2c_ids
                0x000000004028d918       0x30 arch/arm/cpu/armv8/start.o
 .rela.rodata.mxc_i2c_ops
                0x000000004028d948       0x48 arch/arm/cpu/armv8/start.o
 .rela.u_boot_list_2_driver_2_i2c_generic_chip_drv
                0x000000004028d990       0x18 arch/arm/cpu/armv8/start.o
 .rela.u_boot_list_2_uclass_2_i2c
                0x000000004028d9a8       0x60 arch/arm/cpu/armv8/start.o
 .rela.u_boot_list_2_uclass_2_i2c_generic
                0x000000004028da08       0x18 arch/arm/cpu/armv8/start.o
 .rela.u_boot_list_2_driver_2_i2c_mxc
                0x000000004028da20       0x60 arch/arm/cpu/armv8/start.o
 .rela.rodata.esdhc_ops
                0x000000004028da80       0xa8 arch/arm/cpu/armv8/start.o
 .rela.rodata.fsl_esdhc_ids
                0x000000004028db28       0xd8 arch/arm/cpu/armv8/start.o
 .rela.rodata.names.7310
                0x000000004028dc00      0x150 arch/arm/cpu/armv8/start.o
 .rela.u_boot_list_2_driver_2_mmc
                0x000000004028dd50       0x18 arch/arm/cpu/armv8/start.o
 .rela.u_boot_list_2_uclass_2_mmc
                0x000000004028dd68       0x18 arch/arm/cpu/armv8/start.o
 .rela.u_boot_list_2_blk_driver_2_mmc
                0x000000004028dd80       0x48 arch/arm/cpu/armv8/start.o
 .rela.u_boot_list_2_driver_2_fsl_esdhc
                0x000000004028ddc8       0x48 arch/arm/cpu/armv8/start.o
 .rela.rodata.spi_flash_ids
                0x000000004028de10      0x288 arch/arm/cpu/armv8/start.o
 .rela.rodata.fecmxc_ids
                0x000000004028e098       0x60 arch/arm/cpu/armv8/start.o
 .rela.rodata.fecmxc_ops
                0x000000004028e0f8       0xa8 arch/arm/cpu/armv8/start.o
 .rela.u_boot_list_2_driver_2_fecmxc_gem
                0x000000004028e1a0       0x90 arch/arm/cpu/armv8/start.o
 .rela.rodata.phy_interface_strings
                0x000000004028e230      0x150 arch/arm/cpu/armv8/start.o
 .rela.data.genphy_driver
                0x000000004028e380       0x60 arch/arm/cpu/armv8/start.o
 .rela.data.phy_drivers
                0x000000004028e3e0       0x30 arch/arm/cpu/armv8/start.o
 .rela.data.AR8021_driver
                0x000000004028e410       0x60 arch/arm/cpu/armv8/start.o
 .rela.data.AR8031_driver
                0x000000004028e470       0x60 arch/arm/cpu/armv8/start.o
 .rela.data.AR8035_driver
                0x000000004028e4d0       0x60 arch/arm/cpu/armv8/start.o
 .rela.rodata.pfuze100_ids
                0x000000004028e530       0x48 arch/arm/cpu/armv8/start.o
 .rela.rodata.pmic_children_info
                0x000000004028e578       0x60 arch/arm/cpu/armv8/start.o
 .rela.u_boot_list_2_uclass_2_pmic
                0x000000004028e5d8       0x18 arch/arm/cpu/armv8/start.o
 .rela.data.pfuze100_ops
                0x000000004028e5f0       0x48 arch/arm/cpu/armv8/start.o
 .rela.u_boot_list_2_driver_2_pmic_pfuze100
                0x000000004028e638       0x60 arch/arm/cpu/armv8/start.o
 .rela.rodata.pfuze100_regulator_ops
                0x000000004028e698       0x90 arch/arm/cpu/armv8/start.o
 .rela.rodata.fixed_regulator_ids
                0x000000004028e728       0x18 arch/arm/cpu/armv8/start.o
 .rela.rodata.fixed_regulator_ops
                0x000000004028e740       0x60 arch/arm/cpu/armv8/start.o
 .rela.rodata.gpio_regulator_ids
                0x000000004028e7a0       0x18 arch/arm/cpu/armv8/start.o
 .rela.rodata.gpio_regulator_ops
                0x000000004028e7b8       0x30 arch/arm/cpu/armv8/start.o
 .rela.u_boot_list_2_uclass_2_regulator
                0x000000004028e7e8       0x48 arch/arm/cpu/armv8/start.o
 .rela.data.pfuze100_regulators
                0x000000004028e830      0x198 arch/arm/cpu/armv8/start.o
 .rela.data.pfuze200_regulators
                0x000000004028e9c8      0x168 arch/arm/cpu/armv8/start.o
 .rela.data.pfuze3000_regulators
                0x000000004028eb30      0x180 arch/arm/cpu/armv8/start.o
 .rela.data.pfuze_ldo_modes
                0x000000004028ecb0       0x30 arch/arm/cpu/armv8/start.o
 .rela.data.pfuze_sw_modes
                0x000000004028ece0       0xd8 arch/arm/cpu/armv8/start.o
 .rela.data.pfuze_swbst_modes
                0x000000004028edb8       0x60 arch/arm/cpu/armv8/start.o
 .rela.u_boot_list_2_driver_2_pfuze100_regulator
                0x000000004028ee18       0x48 arch/arm/cpu/armv8/start.o
 .rela.u_boot_list_2_driver_2_fixed_regulator
                0x000000004028ee60       0x60 arch/arm/cpu/armv8/start.o
 .rela.u_boot_list_2_driver_2_gpio_regulator
                0x000000004028eec0       0x60 arch/arm/cpu/armv8/start.o
 .rela.u_boot_list_2_env_clbk_2_baudrate
                0x000000004028ef20       0x30 arch/arm/cpu/armv8/start.o
 .rela.data.mxc_serial_drv
                0x000000004028ef50       0x90 arch/arm/cpu/armv8/start.o
 .rela.rodata.dwc3_gadget_ep0_ops
                0x000000004028efe0       0xc0 arch/arm/cpu/armv8/start.o
 .rela.rodata.dwc3_gadget_ep_ops
                0x000000004028f0a0       0xc0 arch/arm/cpu/armv8/start.o
 .rela.rodata.dwc3_gadget_ops
                0x000000004028f160       0x90 arch/arm/cpu/armv8/start.o
 .rela.data.dwc3_list
                0x000000004028f1f0       0x30 arch/arm/cpu/armv8/start.o
 .rela.data.composite_driver
                0x000000004028f220       0xa8 arch/arm/cpu/armv8/start.o
 .rela.data.g_dnl_composite_strings
                0x000000004028f2c8       0x18 arch/arm/cpu/armv8/start.o
 .rela.data.g_dnl_driver
                0x000000004028f2e0       0x60 arch/arm/cpu/armv8/start.o
 .rela.data.g_dnl_string_defs
                0x000000004028f340       0x48 arch/arm/cpu/armv8/start.o
 .rela.data.g_dnl_string_tab
                0x000000004028f388       0x18 arch/arm/cpu/armv8/start.o
 .rela.data.fsg_fs_function
                0x000000004028f3a0       0x48 arch/arm/cpu/armv8/start.o
 .rela.data.fsg_hs_function
                0x000000004028f3e8       0x48 arch/arm/cpu/armv8/start.o
 .rela.data.fsg_strings
                0x000000004028f430       0x18 arch/arm/cpu/armv8/start.o
 .rela.data.fsg_strings_array
                0x000000004028f448       0x18 arch/arm/cpu/armv8/start.o
 .rela.data.fsg_stringtab
                0x000000004028f460       0x18 arch/arm/cpu/armv8/start.o
 .rela.u_boot_list_2_g_dnl_bind_callbacks_2___usb_function_name_usb_dnl_ums
                0x000000004028f478       0x30 arch/arm/cpu/armv8/start.o
 .rela.data.udc_list
                0x000000004028f4a8       0x30 arch/arm/cpu/armv8/start.o
 .rela.rodata.filesystems
                0x000000004028f4d8        0x0 arch/arm/cpu/armv8/start.o
 .rela.data.fstypes
                0x000000004028f4d8      0x288 arch/arm/cpu/armv8/start.o
 .rela.rodata.efi_boot_services
                0x000000004028f760      0x3f0 arch/arm/cpu/armv8/start.o
 .rela.rodata.efi_runtime_detach_list
                0x000000004028fb50       0xf0 arch/arm/cpu/armv8/start.o
 .rela.rodata.efi_con_in
                0x000000004028fc40       0x30 arch/arm/cpu/armv8/start.o
 .rela.rodata.efi_con_out
                0x000000004028fc70       0xf0 arch/arm/cpu/armv8/start.o
 .rela.rodata.efi_console_control
                0x000000004028fd60       0x48 arch/arm/cpu/armv8/start.o
 .rela.rodata.z_errmsg
                0x000000004028fda8        0x0 arch/arm/cpu/armv8/start.o
 .rela.rodata.fdt_errtable
                0x000000004028fda8      0x150 arch/arm/cpu/armv8/start.o
 .rela.rodata.smbios_write_funcs
                0x000000004028fef8       0xa8 arch/arm/cpu/armv8/start.o
 .rela.rodata.compat_names
                0x000000004028ffa0        0x0 arch/arm/cpu/armv8/start.o
 .rela.data.efi_obj_list
                0x000000004028ffa0       0x30 arch/arm/cpu/armv8/start.o
 .rela.data.loaded_image_info_obj.6786
                0x000000004028ffd0       0x30 arch/arm/cpu/armv8/start.o
 .rela.data.efi_runtime_mmio
                0x0000000040290000       0x30 arch/arm/cpu/armv8/start.o
 .rela.data.efi_mem
                0x0000000040290030       0x30 arch/arm/cpu/armv8/start.o
 .rela.data.current
                0x0000000040290060        0x0 arch/arm/cpu/armv8/start.o
 .rela.u_boot_list_2_env_clbk_2_ethaddr
                0x0000000040290060       0x30 arch/arm/cpu/armv8/start.o
 .rela.u_boot_list_2_uclass_2_eth
                0x0000000040290090       0x78 arch/arm/cpu/armv8/start.o
 .rela.u_boot_list_2_env_clbk_2_bootfile
                0x0000000040290108       0x30 arch/arm/cpu/armv8/start.o
 .rela.u_boot_list_2_env_clbk_2_gatewayip
                0x0000000040290138       0x30 arch/arm/cpu/armv8/start.o
 .rela.u_boot_list_2_env_clbk_2_ipaddr
                0x0000000040290168       0x30 arch/arm/cpu/armv8/start.o
 .rela.u_boot_list_2_env_clbk_2_netmask
                0x0000000040290198       0x30 arch/arm/cpu/armv8/start.o
 .rela.u_boot_list_2_env_clbk_2_nvlan
                0x00000000402901c8       0x30 arch/arm/cpu/armv8/start.o
 .rela.u_boot_list_2_env_clbk_2_serverip
                0x00000000402901f8       0x30 arch/arm/cpu/armv8/start.o
 .rela.u_boot_list_2_env_clbk_2_vlan
                0x0000000040290228       0x30 arch/arm/cpu/armv8/start.o
 .rela.data.test_commands
                0x0000000040290258      0x120 arch/arm/cpu/armv8/start.o
 .rela.u_boot_list_2_cmd_2_dm
                0x0000000040290378       0x60 arch/arm/cpu/armv8/start.o

.rel_dyn_end    0x00000000402903d8        0x0
 *(.__rel_dyn_end)
 .__rel_dyn_end
                0x00000000402903d8        0x0 arch/arm/lib/built-in.o
                0x00000000402903d8                _end = .
                0x00000000402903d8                . = ALIGN (0x8)

.bss_start      0x00000000402903d8        0x0
 *(.__bss_start)
 .__bss_start   0x00000000402903d8        0x0 arch/arm/lib/built-in.o
                0x00000000402903d8                __bss_start

.bss            0x0000000040290400    0x56940
 *(.bss*)
 .bss.gmode     0x0000000040290400       0x18 arch/arm/cpu/armv8/built-in.o
 .bss.panel     0x0000000040290418       0x90 arch/arm/cpu/armv8/built-in.o
                0x0000000040290418                panel
 .bss.port      0x00000000402904a8      0x448 board/freescale/imx8mq_evk/built-in.o
                0x00000000402904a8                port
 .bss.data.5792
                0x00000000402908f0      0x400 cmd/built-in.o
 .bss.working_fdt
                0x0000000040290cf0        0x8 cmd/built-in.o
                0x0000000040290cf0                working_fdt
 .bss.i2c_cur_bus
                0x0000000040290cf8        0x8 cmd/built-in.o
 .bss.i2c_dp_last_addr
                0x0000000040290d00        0x4 cmd/built-in.o
 .bss.i2c_dp_last_alen
                0x0000000040290d04        0x4 cmd/built-in.o
 .bss.i2c_dp_last_chip
                0x0000000040290d08        0x4 cmd/built-in.o
 .bss.i2c_mm_last_addr
                0x0000000040290d0c        0x4 cmd/built-in.o
 .bss.i2c_mm_last_alen
                0x0000000040290d10        0x4 cmd/built-in.o
 .bss.i2c_mm_last_chip
                0x0000000040290d14        0x4 cmd/built-in.o
 .bss.a_b       0x0000000040290d18       0x18 cmd/built-in.o
 .bss.bin_start_address
                0x0000000040290d30        0x8 cmd/built-in.o
 .bss.his_eol   0x0000000040290d38        0x1 cmd/built-in.o
 .bss.his_pad_char
                0x0000000040290d39        0x1 cmd/built-in.o
 *fill*         0x0000000040290d3a        0x2 
 .bss.his_pad_count
                0x0000000040290d3c        0x4 cmd/built-in.o
 .bss.his_quote
                0x0000000040290d40        0x1 cmd/built-in.o
 *fill*         0x0000000040290d41        0x3 
 .bss.k_data_escape
                0x0000000040290d44        0x4 cmd/built-in.o
 .bss.k_data_escape_saved
                0x0000000040290d48        0x4 cmd/built-in.o
 *fill*         0x0000000040290d4c        0x4 
 .bss.os_data_addr
                0x0000000040290d50        0x8 cmd/built-in.o
 .bss.os_data_addr_saved
                0x0000000040290d58        0x8 cmd/built-in.o
 .bss.os_data_char
                0x0000000040290d60        0x8 cmd/built-in.o
 .bss.os_data_init
                0x0000000040290d68        0x8 cmd/built-in.o
 .bss.os_data_state
                0x0000000040290d70        0x4 cmd/built-in.o
 .bss.os_data_state_saved
                0x0000000040290d74        0x4 cmd/built-in.o
 .bss.send_parms
                0x0000000040290d78       0x14 cmd/built-in.o
 *fill*         0x0000000040290d8c        0x4 
 .bss.send_ptr  0x0000000040290d90        0x8 cmd/built-in.o
 .bss.base_address
                0x0000000040290d98        0x8 cmd/built-in.o
 .bss.dp_last_addr
                0x0000000040290da0        0x8 cmd/built-in.o
 .bss.dp_last_size
                0x0000000040290da8        0x8 cmd/built-in.o
 .bss.mm_last_addr
                0x0000000040290db0        0x8 cmd/built-in.o
 .bss.mm_last_size
                0x0000000040290db8        0x8 cmd/built-in.o
 .bss.last_addr_hi
                0x0000000040290dc0        0x8 cmd/built-in.o
 .bss.last_addr_lo
                0x0000000040290dc8        0x8 cmd/built-in.o
 .bss.last_data
                0x0000000040290dd0        0x8 cmd/built-in.o
 .bss.last_mask
                0x0000000040290dd8        0x4 cmd/built-in.o
 *fill*         0x0000000040290ddc        0x4 
 .bss.last_op   0x0000000040290de0        0xa cmd/built-in.o
 *fill*         0x0000000040290dea        0x2 
 .bss.last_reg_hi
                0x0000000040290dec        0x8 cmd/built-in.o
 .bss.last_reg_lo
                0x0000000040290df4        0x8 cmd/built-in.o
 .bss.last_devad_hi
                0x0000000040290dfc        0x4 cmd/built-in.o
 .bss.last_devad_lo
                0x0000000040290e00        0x4 cmd/built-in.o
 *fill*         0x0000000040290e04        0x4 
 .bss.flash     0x0000000040290e08        0x8 cmd/built-in.o
 .bss.ums       0x0000000040290e10        0x8 cmd/built-in.o
 .bss.ums_count
                0x0000000040290e18        0x4 cmd/built-in.o
 *fill*         0x0000000040290e1c        0x4 
 .bss.currdev   0x0000000040290e20       0x10 cmd/built-in.o
 .bss.buf.6205  0x0000000040290e30       0x28 common/built-in.o
 .bss.do_repeat
                0x0000000040290e58        0x4 common/built-in.o
 .bss.flag_repeat
                0x0000000040290e5c        0x4 common/built-in.o
 .bss.ifs       0x0000000040290e60        0x8 common/built-in.o
 .bss.last_return_code
                0x0000000040290e68        0x4 common/built-in.o
 *fill*         0x0000000040290e6c        0x4 
 .bss.map       0x0000000040290e70      0x100 common/built-in.o
 .bss.the_command.6005
                0x0000000040290f70      0x801 common/built-in.o
 *fill*         0x0000000040291771        0x7 
 .bss.top_vars  0x0000000040291778        0x8 common/built-in.o
 .bss.stored_bootdelay
                0x0000000040291780        0x4 common/built-in.o
 *fill*         0x0000000040291784        0x4 
 .bss.monitor_flash_len
                0x0000000040291788        0x8 common/built-in.o
                0x0000000040291788                monitor_flash_len
 .bss.images    0x0000000040291790      0x280 common/built-in.o
                0x0000000040291790                images
 .bss.callback_list
                0x0000000040291a10        0x8 common/built-in.o
 .bss.flags_list
                0x0000000040291a18        0x8 common/built-in.o
 .bss.current_mii
                0x0000000040291a20        0x8 common/built-in.o
 .bss.mii_devs  0x0000000040291a28       0x10 common/built-in.o
 .bss.asynch_allowed
                0x0000000040291a38        0x4 common/built-in.o
 .bss.dev_index
                0x0000000040291a3c        0x4 common/built-in.o
 .bss.usb_dev   0x0000000040291a40    0x13800 common/built-in.o
 .bss.usb_started
                0x00000000402a5240        0x1 common/built-in.o
                0x00000000402a5240                usb_started
 *fill*         0x00000000402a5241        0x7 
 .bss.hub_dev   0x00000000402a5248      0x480 common/built-in.o
 .bss.running.7684
                0x00000000402a56c8        0x4 common/built-in.o
 .bss.usb_hub_index
                0x00000000402a56cc        0x4 common/built-in.o
 .bss.CBWTag    0x00000000402a56d0        0x4 common/built-in.o
 *fill*         0x00000000402a56d4       0x2c 
 .bss.usb_ccb   0x00000000402a5700      0x100 common/built-in.o
 .bss.usb_dev_desc
                0x00000000402a5800      0x3f0 common/built-in.o
 .bss.usb_max_devs
                0x00000000402a5bf0        0x4 common/built-in.o
 *fill*         0x00000000402a5bf4        0x4 
 .bss.usb_stor  0x00000000402a5bf8      0x1f8 common/built-in.o
 .bss.cd_count  0x00000000402a5df0        0xc common/built-in.o
                0x00000000402a5df0                cd_count
 *fill*         0x00000000402a5dfc        0x4 
 .bss.console_devices
                0x00000000402a5e00       0x18 common/built-in.o
                0x00000000402a5e00                console_devices
 .bss.ctrlc_disabled
                0x00000000402a5e18        0x4 common/built-in.o
 .bss.ctrlc_was_pressed
                0x00000000402a5e1c        0x4 common/built-in.o
 .bss.tstcdev   0x00000000402a5e20        0x8 common/built-in.o
 .bss.current_mallinfo
                0x00000000402a5e28       0x28 common/built-in.o
 .bss.max_sbrked_mem
                0x00000000402a5e50        0x8 common/built-in.o
 .bss.max_total_mem
                0x00000000402a5e58        0x8 common/built-in.o
 .bss.mem_malloc_brk
                0x00000000402a5e60        0x8 common/built-in.o
                0x00000000402a5e60                mem_malloc_brk
 .bss.mem_malloc_end
                0x00000000402a5e68        0x8 common/built-in.o
                0x00000000402a5e68                mem_malloc_end
 .bss.mem_malloc_start
                0x00000000402a5e70        0x8 common/built-in.o
                0x00000000402a5e70                mem_malloc_start
 .bss.top_pad   0x00000000402a5e78        0x8 common/built-in.o
 .bss.devs      0x00000000402a5e80       0x70 common/built-in.o
 .bss.stdio_devices
                0x00000000402a5ef0       0x18 common/built-in.o
                0x00000000402a5ef0                stdio_devices
 .bss.console_buffer
                0x00000000402a5f08      0x801 common/built-in.o
                0x00000000402a5f08                console_buffer
 *fill*         0x00000000402a6709        0x3 
 .bss.hist_add_idx
                0x00000000402a670c        0x4 common/built-in.o
 .bss.hist_lines
                0x00000000402a6710     0xa014 common/built-in.o
 *fill*         0x00000000402b0724        0x4 
 .bss.hist_list
                0x00000000402b0728       0xa0 common/built-in.o
 .bss.hist_max  0x00000000402b07c8        0x4 common/built-in.o
 .bss.hist_num  0x00000000402b07cc        0x4 common/built-in.o
 .bss.initted.5806
                0x00000000402b07d0        0x4 common/built-in.o
 *fill*         0x00000000402b07d4        0x4 
 .bss.tmp_buf   0x00000000402b07d8      0x800 common/built-in.o
 .bss.tmp_buf.5764
                0x00000000402b0fd8      0x200 common/built-in.o
 .bss.xyz       0x00000000402b11d8      0x448 common/built-in.o
 .bss.imx8mq_pinctrl_soc_info
                0x00000000402b1620       0x18 drivers/built-in.o
 .bss.bgx       0x00000000402b1638        0x4 drivers/built-in.o
 .bss.cfb_do_flush_cache
                0x00000000402b163c        0x4 drivers/built-in.o
 .bss.console_col
                0x00000000402b1640        0x4 drivers/built-in.o
 .bss.console_row
                0x00000000402b1644        0x4 drivers/built-in.o
 .bss.cursor_state
                0x00000000402b1648        0x4 drivers/built-in.o
 .bss.eorx      0x00000000402b164c        0x4 drivers/built-in.o
 .bss.fgx       0x00000000402b1650        0x4 drivers/built-in.o
 .bss.old_col   0x00000000402b1654        0x4 drivers/built-in.o
 .bss.old_row   0x00000000402b1658        0x4 drivers/built-in.o
 *fill*         0x00000000402b165c        0x4 
 .bss.pGD       0x00000000402b1660        0x8 drivers/built-in.o
 .bss.video_console_address
                0x00000000402b1668        0x8 drivers/built-in.o
 .bss.video_fb_address
                0x00000000402b1670        0x8 drivers/built-in.o
 .bss.video_logo_xpos
                0x00000000402b1678        0x4 drivers/built-in.o
 .bss.video_logo_ypos
                0x00000000402b167c        0x4 drivers/built-in.o
 .bss.alive.5893
                0x00000000402b1680        0x4 drivers/built-in.o
 *fill*         0x00000000402b1684        0x4 
 .bss.state     0x00000000402b1688      0x814 drivers/built-in.o
                0x00000000402b1688                state
 *fill*         0x00000000402b1e9c        0x4 
 .bss.mmc_devices
                0x00000000402b1ea0       0x10 drivers/mmc/built-in.o
 .bss.initialized.7833
                0x00000000402b1eb0        0x4 drivers/mmc/built-in.o
 *fill*         0x00000000402b1eb4        0x4 
 .bss.serial_current
                0x00000000402b1eb8        0x8 drivers/serial/built-in.o
 .bss.serial_devices
                0x00000000402b1ec0        0x8 drivers/serial/built-in.o
 .bss.wr_sfaddr.7272
                0x00000000402b1ec8        0x4 drivers/spi/built-in.o
 .bss.epnum     0x00000000402b1ecc        0x4 drivers/usb/gadget/built-in.o
 .bss.composite
                0x00000000402b1ed0        0x8 drivers/usb/gadget/built-in.o
 .bss.g_dnl_serial
                0x00000000402b1ed8       0x20 drivers/usb/gadget/built-in.o
 .bss.state.6933
                0x00000000402b1ef8        0x4 drivers/usb/gadget/built-in.o
 *fill*         0x00000000402b1efc        0x4 
 .bss.the_fsg_common
                0x00000000402b1f00        0x8 drivers/usb/gadget/built-in.o
 .bss.ums       0x00000000402b1f08        0x8 drivers/usb/gadget/built-in.o
 .bss.ums_count
                0x00000000402b1f10        0x4 drivers/usb/gadget/built-in.o
 *fill*         0x00000000402b1f14        0x4 
 .bss.unknown.7189
                0x00000000402b1f18       0x10 drivers/usb/gadget/built-in.o
 *fill*         0x00000000402b1f28       0x18 
 .bss.xhcic     0x00000000402b1f40     0x1180 drivers/usb/host/built-in.o
 .bss.imx8m_xhci
                0x00000000402b30c0       0x18 drivers/usb/host/built-in.o
 .bss.fs_dev_desc
                0x00000000402b30d8        0x8 fs/built-in.o
 .bss.fs_partition
                0x00000000402b30e0       0x60 fs/built-in.o
 .bss.fs_type   0x00000000402b3140        0x4 fs/built-in.o
 *fill*         0x00000000402b3144        0x4 
 .bss.ext_fs    0x00000000402b3148       0x68 fs/built-in.o
                0x00000000402b3148                ext_fs
 .bss.ext4fs_file
                0x00000000402b31b0        0x8 fs/built-in.o
                0x00000000402b31b0                ext4fs_file
 .bss.ext4fs_indir1_block
                0x00000000402b31b8        0x8 fs/built-in.o
                0x00000000402b31b8                ext4fs_indir1_block
 .bss.ext4fs_indir1_size
                0x00000000402b31c0        0x4 fs/built-in.o
                0x00000000402b31c0                ext4fs_indir1_size
 *fill*         0x00000000402b31c4        0x4 
 .bss.ext4fs_indir2_block
                0x00000000402b31c8        0x8 fs/built-in.o
                0x00000000402b31c8                ext4fs_indir2_block
 .bss.ext4fs_indir2_size
                0x00000000402b31d0        0x4 fs/built-in.o
                0x00000000402b31d0                ext4fs_indir2_size
 *fill*         0x00000000402b31d4        0x4 
 .bss.ext4fs_indir3_block
                0x00000000402b31d8        0x8 fs/built-in.o
                0x00000000402b31d8                ext4fs_indir3_block
 .bss.ext4fs_indir3_size
                0x00000000402b31e0        0x4 fs/built-in.o
                0x00000000402b31e0                ext4fs_indir3_size
 *fill*         0x00000000402b31e4        0x4 
 .bss.ext4fs_root
                0x00000000402b31e8        0x8 fs/built-in.o
                0x00000000402b31e8                ext4fs_root
 .bss.g_parent_inode
                0x00000000402b31f0        0x8 fs/built-in.o
                0x00000000402b31f0                g_parent_inode
 .bss.symlinknest
                0x00000000402b31f8        0x4 fs/built-in.o
 *fill*         0x00000000402b31fc        0x4 
 .bss.ext4fs_blk_desc
                0x00000000402b3200        0x8 fs/built-in.o
 .bss.part_info
                0x00000000402b3208        0x8 fs/built-in.o
 .bss.part_offset
                0x00000000402b3210        0x8 fs/built-in.o
                0x00000000402b3210                part_offset
 .bss.dirty_block_ptr
                0x00000000402b3218      0x320 fs/built-in.o
                0x00000000402b3218                dirty_block_ptr
 .bss.gd_index  0x00000000402b3538        0x4 fs/built-in.o
                0x00000000402b3538                gd_index
 .bss.gindex    0x00000000402b353c        0x4 fs/built-in.o
                0x00000000402b353c                gindex
 .bss.journal_ptr
                0x00000000402b3540      0x320 fs/built-in.o
                0x00000000402b3540                journal_ptr
 .bss.jrnl_blk_idx
                0x00000000402b3860        0x4 fs/built-in.o
                0x00000000402b3860                jrnl_blk_idx
 *fill*         0x00000000402b3864        0x4 
 .bss.prev_node
                0x00000000402b3868        0x8 fs/built-in.o
 .bss.revk_blk_list
                0x00000000402b3870        0x8 fs/built-in.o
 .bss.cur_dev   0x00000000402b3878        0x8 fs/built-in.o
 .bss.cur_part_info
                0x00000000402b3880       0x60 fs/built-in.o
 *fill*         0x00000000402b38e0       0x20 
 .bss.do_fat_read_at_block
                0x00000000402b3900    0x10000 fs/built-in.o
                0x00000000402b3900                do_fat_read_at_block
 .bss.get_contents_vfatname_block
                0x00000000402c3900    0x10000 fs/built-in.o
                0x00000000402c3900                get_contents_vfatname_block
 .bss.get_dentfromdir_block
                0x00000000402d3900    0x10000 fs/built-in.o
                0x00000000402d3900                get_dentfromdir_block
 .bss.app_gd    0x00000000402e3900        0x8 lib/built-in.o
 .bss.efi_gd    0x00000000402e3908        0x8 lib/built-in.o
 .bss.mono.6834
                0x00000000402e3910        0x8 lib/built-in.o
 .bss.console_size_queried
                0x00000000402e3918        0x1 lib/built-in.o
 *fill*         0x00000000402e3919        0x7 
 .bss.dhcp_ack  0x00000000402e3920        0x8 lib/built-in.o
 .bss.new_rx_packet
                0x00000000402e3928        0x1 lib/built-in.o
 *fill*         0x00000000402e3929        0x7 
 .bss.new_tx_packet
                0x00000000402e3930        0x8 lib/built-in.o
 .bss.errno     0x00000000402e3938        0x4 lib/built-in.o
                0x00000000402e3938                errno
 *fill*         0x00000000402e393c        0x4 
 .bss.___strtok
                0x00000000402e3940        0x8 lib/built-in.o
                0x00000000402e3940                ___strtok
 .bss.local.5878
                0x00000000402e3948       0x16 lib/built-in.o
 *fill*         0x00000000402e395e        0x2 
 .bss.arp_tx_packet
                0x00000000402e3960        0x8 net/built-in.o
 .bss.arp_tx_packet_buf
                0x00000000402e3968      0x640 net/built-in.o
 .bss.arp_wait_packet_ethaddr
                0x00000000402e3fa8        0x8 net/built-in.o
                0x00000000402e3fa8                arp_wait_packet_ethaddr
 .bss.arp_wait_timer_start
                0x00000000402e3fb0        0x8 net/built-in.o
                0x00000000402e3fb0                arp_wait_timer_start
 .bss.arp_wait_try
                0x00000000402e3fb8        0x4 net/built-in.o
                0x00000000402e3fb8                arp_wait_try
 .bss.arp_wait_tx_packet_size
                0x00000000402e3fbc        0x4 net/built-in.o
                0x00000000402e3fbc                arp_wait_tx_packet_size
 .bss.net_arp_wait_packet_ip
                0x00000000402e3fc0        0x4 net/built-in.o
                0x00000000402e3fc0                net_arp_wait_packet_ip
 *fill*         0x00000000402e3fc4        0x4 
 .bss.net_arp_wait_reply_ip
                0x00000000402e3fc8        0x4 net/built-in.o
 *fill*         0x00000000402e3fcc        0x4 
 .bss.bootp_ids
                0x00000000402e3fd0       0x10 net/built-in.o
                0x00000000402e3fd0                bootp_ids
 .bss.bootp_num_ids
                0x00000000402e3fe0        0x4 net/built-in.o
                0x00000000402e3fe0                bootp_num_ids
 *fill*         0x00000000402e3fe4        0x4 
 .bss.bootp_start
                0x00000000402e3fe8        0x8 net/built-in.o
                0x00000000402e3fe8                bootp_start
 .bss.bootp_timeout
                0x00000000402e3ff0        0x8 net/built-in.o
                0x00000000402e3ff0                bootp_timeout
 .bss.bootp_try
                0x00000000402e3ff8        0x4 net/built-in.o
                0x00000000402e3ff8                bootp_try
 .bss.dhcp_leasetime
                0x00000000402e3ffc        0x4 net/built-in.o
 .bss.dhcp_option_overload
                0x00000000402e4000        0x1 net/built-in.o
 *fill*         0x00000000402e4001        0x7 
 .bss.dhcp_server_ip
                0x00000000402e4008        0x4 net/built-in.o
 .bss.dhcp_state
                0x00000000402e400c        0x4 net/built-in.o
 .bss.net_hostname
                0x00000000402e4010       0x20 net/built-in.o
                0x00000000402e4010                net_hostname
 .bss.net_nis_domain
                0x00000000402e4030       0x20 net/built-in.o
                0x00000000402e4030                net_nis_domain
 .bss.net_root_path
                0x00000000402e4050       0x40 net/built-in.o
                0x00000000402e4050                net_root_path
 .bss.time_taken_max
                0x00000000402e4090        0x8 net/built-in.o
 .bss.eth_errno
                0x00000000402e4098        0x4 net/built-in.o
 *fill*         0x00000000402e409c        0x4 
 .bss.act.7322  0x00000000402e40a0        0x8 net/built-in.o
 .bss.env_changed_id.7323
                0x00000000402e40a8        0x4 net/built-in.o
 *fill*         0x00000000402e40ac        0x4 
 .bss.first_failed.7317
                0x00000000402e40b0        0x8 net/built-in.o
 .bss.arp_packet_handler
                0x00000000402e40b8        0x8 net/built-in.o
 .bss.net_boot_file_expected_size_in_blocks
                0x00000000402e40c0        0x4 net/built-in.o
                0x00000000402e40c0                net_boot_file_expected_size_in_blocks
 *fill*         0x00000000402e40c4        0x4 
 .bss.net_boot_file_name
                0x00000000402e40c8      0x400 net/built-in.o
                0x00000000402e40c8                net_boot_file_name
 .bss.net_boot_file_size
                0x00000000402e44c8        0x4 net/built-in.o
                0x00000000402e44c8                net_boot_file_size
 .bss.net_dev_exists
                0x00000000402e44cc        0x4 net/built-in.o
 .bss.net_dns_server
                0x00000000402e44d0        0x4 net/built-in.o
                0x00000000402e44d0                net_dns_server
 *fill*         0x00000000402e44d4        0x4 
 .bss.net_ethaddr
                0x00000000402e44d8        0x6 net/built-in.o
                0x00000000402e44d8                net_ethaddr
 *fill*         0x00000000402e44de        0x2 
 .bss.net_gateway
                0x00000000402e44e0        0x4 net/built-in.o
                0x00000000402e44e0                net_gateway
 *fill*         0x00000000402e44e4        0x4 
 .bss.net_ip    0x00000000402e44e8        0x4 net/built-in.o
                0x00000000402e44e8                net_ip
 .bss.net_ip_id
                0x00000000402e44ec        0x4 net/built-in.o
 .bss.net_netmask
                0x00000000402e44f0        0x4 net/built-in.o
                0x00000000402e44f0                net_netmask
 *fill*         0x00000000402e44f4        0x4 
 .bss.net_null_ethaddr
                0x00000000402e44f8        0x6 net/built-in.o
                0x00000000402e44f8                net_null_ethaddr
 *fill*         0x00000000402e44fe        0x2 
 .bss.net_pkt_buf
                0x00000000402e4500     0x1e40 net/built-in.o
 .bss.net_restart_wrap
                0x00000000402e6340        0x4 net/built-in.o
                0x00000000402e6340                net_restart_wrap
 .bss.net_restarted
                0x00000000402e6344        0x4 net/built-in.o
 .bss.net_rx_packet
                0x00000000402e6348        0x8 net/built-in.o
                0x00000000402e6348                net_rx_packet
 .bss.net_rx_packet_len
                0x00000000402e6350        0x4 net/built-in.o
                0x00000000402e6350                net_rx_packet_len
 *fill*         0x00000000402e6354        0x4 
 .bss.net_rx_packets
                0x00000000402e6358       0x20 net/built-in.o
                0x00000000402e6358                net_rx_packets
 .bss.net_server_ethaddr
                0x00000000402e6378        0x6 net/built-in.o
                0x00000000402e6378                net_server_ethaddr
 *fill*         0x00000000402e637e        0x2 
 .bss.net_server_ip
                0x00000000402e6380        0x4 net/built-in.o
                0x00000000402e6380                net_server_ip
 .bss.net_state
                0x00000000402e6384        0x4 net/built-in.o
                0x00000000402e6384                net_state
 .bss.net_try_count
                0x00000000402e6388        0x4 net/built-in.o
 *fill*         0x00000000402e638c        0x4 
 .bss.net_tx_packet
                0x00000000402e6390        0x8 net/built-in.o
                0x00000000402e6390                net_tx_packet
 .bss.push_packet
                0x00000000402e6398        0x8 net/built-in.o
                0x00000000402e6398                push_packet
 .bss.time_delta
                0x00000000402e63a0        0x8 net/built-in.o
 .bss.time_handler
                0x00000000402e63a8        0x8 net/built-in.o
 .bss.time_start
                0x00000000402e63b0       0x10 net/built-in.o
 .bss.udp_packet_handler
                0x00000000402e63c0        0x8 net/built-in.o
 .bss.dirfh     0x00000000402e63c8       0x20 net/built-in.o
 .bss.filefh    0x00000000402e63e8       0x40 net/built-in.o
 .bss.filefh3_length
                0x00000000402e6428        0x4 net/built-in.o
 .bss.fs_mounted
                0x00000000402e642c        0x4 net/built-in.o
 .bss.nfs_download_state
                0x00000000402e6430        0x4 net/built-in.o
 *fill*         0x00000000402e6434        0x4 
 .bss.nfs_filename
                0x00000000402e6438        0x8 net/built-in.o
 .bss.nfs_len   0x00000000402e6440        0x4 net/built-in.o
 .bss.nfs_our_port
                0x00000000402e6444        0x4 net/built-in.o
 .bss.nfs_path  0x00000000402e6448        0x8 net/built-in.o
 .bss.nfs_path_buff
                0x00000000402e6450      0x800 net/built-in.o
 .bss.nfs_server_ip
                0x00000000402e6c50        0x4 net/built-in.o
 .bss.nfs_server_mount_port
                0x00000000402e6c54        0x4 net/built-in.o
 .bss.nfs_server_port
                0x00000000402e6c58        0x4 net/built-in.o
 .bss.nfs_state
                0x00000000402e6c5c        0x4 net/built-in.o
 .bss.nfs_timeout_count
                0x00000000402e6c60        0x4 net/built-in.o
 *fill*         0x00000000402e6c64        0x4 
 .bss.rpc_id    0x00000000402e6c68        0x8 net/built-in.o
 .bss.net_ping_ip
                0x00000000402e6c70        0x4 net/built-in.o
                0x00000000402e6c70                net_ping_ip
 .bss.ping_seq_number
                0x00000000402e6c74        0x2 net/built-in.o
 *fill*         0x00000000402e6c76        0x2 
 .bss.default_filename
                0x00000000402e6c78        0xd net/built-in.o
 *fill*         0x00000000402e6c85        0x3 
 .bss.tftp_block_wrap
                0x00000000402e6c88        0x8 net/built-in.o
 .bss.tftp_block_wrap_offset
                0x00000000402e6c90        0x8 net/built-in.o
 .bss.tftp_cur_block
                0x00000000402e6c98        0x8 net/built-in.o
 .bss.tftp_filename
                0x00000000402e6ca0       0x80 net/built-in.o
 .bss.tftp_our_port
                0x00000000402e6d20        0x4 net/built-in.o
 *fill*         0x00000000402e6d24        0x4 
 .bss.tftp_prev_block
                0x00000000402e6d28        0x8 net/built-in.o
 .bss.tftp_remote_ip
                0x00000000402e6d30        0x4 net/built-in.o
 .bss.tftp_remote_port
                0x00000000402e6d34        0x4 net/built-in.o
 .bss.tftp_state
                0x00000000402e6d38        0x4 net/built-in.o
 .bss.timeout_count
                0x00000000402e6d3c        0x4 net/built-in.o
                0x00000000402e6d40                . = ALIGN (0x8)

.dynbss         0x00000000402e6d40        0x0
 .dynbss        0x00000000402e6d40        0x0 arch/arm/cpu/armv8/start.o

.bss_end        0x00000000402e6d40        0x0
 *(.__bss_end)
 .__bss_end     0x00000000402e6d40        0x0 arch/arm/lib/built-in.o
                0x00000000402e6d40                __bss_end

/DISCARD/
 *(.dynsym)
 *(.dynstr*)
 *(.dynamic*)
 *(.plt*)
 *(.interp*)
 *(.gnu*)
LOAD arch/arm/cpu/armv8/start.o
START GROUP
LOAD arch/arm/cpu/built-in.o
LOAD arch/arm/cpu/armv8/built-in.o
LOAD arch/arm/imx-common/built-in.o
LOAD arch/arm/lib/built-in.o
LOAD board/freescale/common/built-in.o
LOAD board/freescale/imx8mq_evk/built-in.o
LOAD cmd/built-in.o
LOAD common/built-in.o
LOAD disk/built-in.o
LOAD drivers/built-in.o
LOAD drivers/dma/built-in.o
LOAD drivers/gpio/built-in.o
LOAD drivers/i2c/built-in.o
LOAD drivers/mmc/built-in.o
LOAD drivers/mtd/built-in.o
LOAD drivers/mtd/onenand/built-in.o
LOAD drivers/mtd/spi/built-in.o
LOAD drivers/net/built-in.o
LOAD drivers/net/phy/built-in.o
LOAD drivers/pci/built-in.o
LOAD drivers/power/built-in.o
LOAD drivers/power/battery/built-in.o
LOAD drivers/power/domain/built-in.o
LOAD drivers/power/fuel_gauge/built-in.o
LOAD drivers/power/mfd/built-in.o
LOAD drivers/power/pmic/built-in.o
LOAD drivers/power/regulator/built-in.o
LOAD drivers/serial/built-in.o
LOAD drivers/spi/built-in.o
LOAD drivers/usb/cdns3/built-in.o
LOAD drivers/usb/common/built-in.o
LOAD drivers/usb/dwc3/built-in.o
LOAD drivers/usb/emul/built-in.o
LOAD drivers/usb/eth/built-in.o
LOAD drivers/usb/gadget/built-in.o
LOAD drivers/usb/gadget/udc/built-in.o
LOAD drivers/usb/host/built-in.o
LOAD drivers/usb/musb-new/built-in.o
LOAD drivers/usb/musb/built-in.o
LOAD drivers/usb/phy/built-in.o
LOAD drivers/usb/ulpi/built-in.o
LOAD fs/built-in.o
LOAD lib/built-in.o
LOAD net/built-in.o
LOAD test/built-in.o
LOAD test/dm/built-in.o
END GROUP
LOAD /home/poky/2.4/sysroots/aarch64-poky-linux/usr/lib/aarch64-poky-linux/7.3.0/libgcc.a
OUTPUT(u-boot elf64-littleaarch64)

.debug_line     0x0000000000000000    0x3a1f9
 .debug_line    0x0000000000000000       0x85 arch/arm/cpu/armv8/start.o
 .debug_line    0x0000000000000085     0x2221 arch/arm/cpu/armv8/built-in.o
 .debug_line    0x00000000000022a6      0xea9 arch/arm/imx-common/built-in.o
 .debug_line    0x000000000000314f      0xef7 arch/arm/lib/built-in.o
 .debug_line    0x0000000000004046      0xa9a board/freescale/common/built-in.o
 .debug_line    0x0000000000004ae0      0x48e board/freescale/imx8mq_evk/built-in.o
 .debug_line    0x0000000000004f6e     0x70fb cmd/built-in.o
 .debug_line    0x000000000000c069     0x9c43 common/built-in.o
 .debug_line    0x0000000000015cac      0x80f disk/built-in.o
 .debug_line    0x00000000000164bb     0x7451 drivers/built-in.o
 .debug_line    0x000000000001d90c      0xb40 drivers/gpio/built-in.o
 .debug_line    0x000000000001e44c      0xa0c drivers/i2c/built-in.o
 .debug_line    0x000000000001ee58     0x1e1d drivers/mmc/built-in.o
 .debug_line    0x0000000000020c75      0x8c4 drivers/mtd/built-in.o
 .debug_line    0x0000000000021539      0xba2 drivers/mtd/spi/built-in.o
 .debug_line    0x00000000000220db      0x6a9 drivers/net/built-in.o
 .debug_line    0x0000000000022784      0x8fc drivers/net/phy/built-in.o
 .debug_line    0x0000000000023080      0x583 drivers/power/pmic/built-in.o
 .debug_line    0x0000000000023603      0xd7a drivers/power/regulator/built-in.o
 .debug_line    0x000000000002437d      0x6c0 drivers/serial/built-in.o
 .debug_line    0x0000000000024a3d      0x6ff drivers/spi/built-in.o
 .debug_line    0x000000000002513c     0x1eb5 drivers/usb/dwc3/built-in.o
 .debug_line    0x0000000000026ff1     0x200c drivers/usb/gadget/built-in.o
 .debug_line    0x0000000000028ffd      0x3b9 drivers/usb/gadget/udc/built-in.o
 .debug_line    0x00000000000293b6     0x1678 drivers/usb/host/built-in.o
 .debug_line    0x000000000002aa2e     0x345e fs/built-in.o
 .debug_line    0x000000000002de8c     0x9973 lib/built-in.o
 .debug_line    0x00000000000377ff     0x282b net/built-in.o
 .debug_line    0x000000000003a02a      0x1cf test/dm/built-in.o

.debug_info     0x0000000000000000   0x1c9a98
 .debug_info    0x0000000000000000       0x2e arch/arm/cpu/armv8/start.o
 .debug_info    0x000000000000002e     0xf8f7 arch/arm/cpu/armv8/built-in.o
 .debug_info    0x000000000000f925     0x6ed1 arch/arm/imx-common/built-in.o
 .debug_info    0x00000000000167f6     0x828d arch/arm/lib/built-in.o
 .debug_info    0x000000000001ea83     0x50ab board/freescale/common/built-in.o
 .debug_info    0x0000000000023b2e     0x3dff board/freescale/imx8mq_evk/built-in.o
 .debug_info    0x000000000002792d    0x3f765 cmd/built-in.o
 .debug_info    0x0000000000067092    0x4ab5e common/built-in.o
 .debug_info    0x00000000000b1bf0     0x3d8f disk/built-in.o
 .debug_info    0x00000000000b597f    0x38c48 drivers/built-in.o
 .debug_info    0x00000000000ee5c7     0x5374 drivers/gpio/built-in.o
 .debug_info    0x00000000000f393b     0x5994 drivers/i2c/built-in.o
 .debug_info    0x00000000000f92cf     0xfcd1 drivers/mmc/built-in.o
 .debug_info    0x0000000000108fa0     0x3db2 drivers/mtd/built-in.o
 .debug_info    0x000000000010cd52     0x5a15 drivers/mtd/spi/built-in.o
 .debug_info    0x0000000000112767     0x4459 drivers/net/built-in.o
 .debug_info    0x0000000000116bc0     0x3d25 drivers/net/phy/built-in.o
 .debug_info    0x000000000011a8e5     0x337e drivers/power/pmic/built-in.o
 .debug_info    0x000000000011dc63     0x769c drivers/power/regulator/built-in.o
 .debug_info    0x00000000001252ff     0x304d drivers/serial/built-in.o
 .debug_info    0x000000000012834c     0x4dc5 drivers/spi/built-in.o
 .debug_info    0x000000000012d111     0xfc52 drivers/usb/dwc3/built-in.o
 .debug_info    0x000000000013cd63     0xe858 drivers/usb/gadget/built-in.o
 .debug_info    0x000000000014b5bb     0x1dfa drivers/usb/gadget/udc/built-in.o
 .debug_info    0x000000000014d3b5     0xd58c drivers/usb/host/built-in.o
 .debug_info    0x000000000015a941    0x187b7 fs/built-in.o
 .debug_info    0x00000000001730f8    0x425fb lib/built-in.o
 .debug_info    0x00000000001b56f3    0x13538 net/built-in.o
 .debug_info    0x00000000001c8c2b      0xe6d test/dm/built-in.o

.debug_abbrev   0x0000000000000000    0x396ff
 .debug_abbrev  0x0000000000000000       0x14 arch/arm/cpu/armv8/start.o
 .debug_abbrev  0x0000000000000014     0x200e arch/arm/cpu/armv8/built-in.o
 .debug_abbrev  0x0000000000002022     0x1246 arch/arm/imx-common/built-in.o
 .debug_abbrev  0x0000000000003268     0x139b arch/arm/lib/built-in.o
 .debug_abbrev  0x0000000000004603      0xa3f board/freescale/common/built-in.o
 .debug_abbrev  0x0000000000005042      0x4e2 board/freescale/imx8mq_evk/built-in.o
 .debug_abbrev  0x0000000000005524     0x8aab cmd/built-in.o
 .debug_abbrev  0x000000000000dfcf     0x95f9 common/built-in.o
 .debug_abbrev  0x00000000000175c8      0x9b1 disk/built-in.o
 .debug_abbrev  0x0000000000017f79     0x781f drivers/built-in.o
 .debug_abbrev  0x000000000001f798      0x99d drivers/gpio/built-in.o
 .debug_abbrev  0x0000000000020135      0xa73 drivers/i2c/built-in.o
 .debug_abbrev  0x0000000000020ba8     0x18d5 drivers/mmc/built-in.o
 .debug_abbrev  0x000000000002247d      0x797 drivers/mtd/built-in.o
 .debug_abbrev  0x0000000000022c14      0xcdd drivers/mtd/spi/built-in.o
 .debug_abbrev  0x00000000000238f1      0x5dc drivers/net/built-in.o
 .debug_abbrev  0x0000000000023ecd      0x758 drivers/net/phy/built-in.o
 .debug_abbrev  0x0000000000024625      0x64f drivers/power/pmic/built-in.o
 .debug_abbrev  0x0000000000024c74      0xe78 drivers/power/regulator/built-in.o
 .debug_abbrev  0x0000000000025aec      0x7c2 drivers/serial/built-in.o
 .debug_abbrev  0x00000000000262ae      0x6f8 drivers/spi/built-in.o
 .debug_abbrev  0x00000000000269a6     0x11f1 drivers/usb/dwc3/built-in.o
 .debug_abbrev  0x0000000000027b97     0x17b6 drivers/usb/gadget/built-in.o
 .debug_abbrev  0x000000000002934d      0x540 drivers/usb/gadget/udc/built-in.o
 .debug_abbrev  0x000000000002988d     0x1775 drivers/usb/host/built-in.o
 .debug_abbrev  0x000000000002b002     0x264c fs/built-in.o
 .debug_abbrev  0x000000000002d64e     0x9800 lib/built-in.o
 .debug_abbrev  0x0000000000036e4e     0x2601 net/built-in.o
 .debug_abbrev  0x000000000003944f      0x2b0 test/dm/built-in.o

.debug_aranges  0x0000000000000000     0xafb0
 .debug_aranges
                0x0000000000000000       0x30 arch/arm/cpu/armv8/start.o
 .debug_aranges
                0x0000000000000030      0x760 arch/arm/cpu/armv8/built-in.o
 .debug_aranges
                0x0000000000000790      0x210 arch/arm/imx-common/built-in.o
 .debug_aranges
                0x00000000000009a0      0x3b0 arch/arm/lib/built-in.o
 .debug_aranges
                0x0000000000000d50      0x180 board/freescale/common/built-in.o
 .debug_aranges
                0x0000000000000ed0       0xf0 board/freescale/imx8mq_evk/built-in.o
 .debug_aranges
                0x0000000000000fc0     0x10f0 cmd/built-in.o
 .debug_aranges
                0x00000000000020b0     0x2070 common/built-in.o
 .debug_aranges
                0x0000000000004120      0x150 disk/built-in.o
 .debug_aranges
                0x0000000000004270     0x1580 drivers/built-in.o
 .debug_aranges
                0x00000000000057f0      0x350 drivers/gpio/built-in.o
 .debug_aranges
                0x0000000000005b40      0x220 drivers/i2c/built-in.o
 .debug_aranges
                0x0000000000005d60      0x4f0 drivers/mmc/built-in.o
 .debug_aranges
                0x0000000000006250      0x240 drivers/mtd/built-in.o
 .debug_aranges
                0x0000000000006490      0x1d0 drivers/mtd/spi/built-in.o
 .debug_aranges
                0x0000000000006660      0x130 drivers/net/built-in.o
 .debug_aranges
                0x0000000000006790      0x1f0 drivers/net/phy/built-in.o
 .debug_aranges
                0x0000000000006980      0x100 drivers/power/pmic/built-in.o
 .debug_aranges
                0x0000000000006a80      0x2c0 drivers/power/regulator/built-in.o
 .debug_aranges
                0x0000000000006d40      0x200 drivers/serial/built-in.o
 .debug_aranges
                0x0000000000006f40      0x120 drivers/spi/built-in.o
 .debug_aranges
                0x0000000000007060      0x410 drivers/usb/dwc3/built-in.o
 .debug_aranges
                0x0000000000007470      0x4c0 drivers/usb/gadget/built-in.o
 .debug_aranges
                0x0000000000007930       0xf0 drivers/usb/gadget/udc/built-in.o
 .debug_aranges
                0x0000000000007a20      0x390 drivers/usb/host/built-in.o
 .debug_aranges
                0x0000000000007db0      0x840 fs/built-in.o
 .debug_aranges
                0x00000000000085f0     0x21a0 lib/built-in.o
 .debug_aranges
                0x000000000000a790      0x7c0 net/built-in.o
 .debug_aranges
                0x000000000000af50       0x60 test/dm/built-in.o

.debug_str      0x0000000000000000    0x25bee
 .debug_str     0x0000000000000000       0x42 arch/arm/cpu/armv8/start.o
 .debug_str     0x0000000000000042     0x3ac1 arch/arm/cpu/armv8/built-in.o
                                       0xb297 (size before relaxing)
 .debug_str     0x0000000000003b03      0x695 arch/arm/imx-common/built-in.o
                                       0x580e (size before relaxing)
 .debug_str     0x0000000000004198     0x1171 arch/arm/lib/built-in.o
                                       0x6770 (size before relaxing)
 .debug_str     0x0000000000005309      0xc22 board/freescale/common/built-in.o
                                       0x2fb5 (size before relaxing)
 .debug_str     0x0000000000005f2b     0x4616 board/freescale/imx8mq_evk/built-in.o
                                       0x5c49 (size before relaxing)
 .debug_str     0x000000000000a541     0x4770 cmd/built-in.o
                                      0x257ed (size before relaxing)
 .debug_str     0x000000000000ecb1     0x4325 common/built-in.o
                                      0x2c561 (size before relaxing)
 .debug_str     0x0000000000012fd6      0x348 disk/built-in.o
                                       0x1cfa (size before relaxing)
 .debug_str     0x000000000001331e     0x406b drivers/built-in.o
                                      0x22819 (size before relaxing)
 .debug_str     0x0000000000017389      0x50f drivers/gpio/built-in.o
                                       0x2d9d (size before relaxing)
 .debug_str     0x0000000000017898      0x3d4 drivers/i2c/built-in.o
                                       0x3341 (size before relaxing)
 .debug_str     0x0000000000017c6c      0xcbb drivers/mmc/built-in.o
                                       0x8caa (size before relaxing)
 .debug_str     0x0000000000018927      0x8d9 drivers/mtd/built-in.o
                                       0x21e3 (size before relaxing)
 .debug_str     0x0000000000019200      0x445 drivers/mtd/spi/built-in.o
                                       0x371d (size before relaxing)
 .debug_str     0x0000000000019645      0x7dc drivers/net/built-in.o
                                       0x1e03 (size before relaxing)
 .debug_str     0x0000000000019e21      0x261 drivers/net/phy/built-in.o
                                       0x1d0f (size before relaxing)
 .debug_str     0x000000000001a082      0x178 drivers/power/pmic/built-in.o
                                       0x297e (size before relaxing)
 .debug_str     0x000000000001a1fa      0x6e8 drivers/power/regulator/built-in.o
                                       0x58ff (size before relaxing)
 .debug_str     0x000000000001a8e2      0x1d5 drivers/serial/built-in.o
                                       0x21f3 (size before relaxing)
 .debug_str     0x000000000001aab7      0x2cd drivers/spi/built-in.o
                                       0x1f87 (size before relaxing)
 .debug_str     0x000000000001ad84     0x16d1 drivers/usb/dwc3/built-in.o
                                       0x5aa0 (size before relaxing)
 .debug_str     0x000000000001c455     0x13c1 drivers/usb/gadget/built-in.o
                                       0x6235 (size before relaxing)
 .debug_str     0x000000000001d816       0xdb drivers/usb/gadget/udc/built-in.o
                                       0x117c (size before relaxing)
 .debug_str     0x000000000001d8f1     0x123c drivers/usb/host/built-in.o
                                       0x6c58 (size before relaxing)
 .debug_str     0x000000000001eb2d     0x1b5f fs/built-in.o
                                       0xaec1 (size before relaxing)
 .debug_str     0x000000000002068c     0x417d lib/built-in.o
                                      0x26368 (size before relaxing)
 .debug_str     0x0000000000024809     0x136c net/built-in.o
                                       0xbfc3 (size before relaxing)
 .debug_str     0x0000000000025b75       0x79 test/dm/built-in.o
                                        0xaca (size before relaxing)

.comment        0x0000000000000000       0x11
 .comment       0x0000000000000000       0x11 arch/arm/cpu/armv8/built-in.o
                                         0xa2 (size before relaxing)
 .comment       0x0000000000000011       0x7e arch/arm/imx-common/built-in.o
 .comment       0x0000000000000011       0x90 arch/arm/lib/built-in.o
 .comment       0x0000000000000011       0x36 board/freescale/common/built-in.o
 .comment       0x0000000000000011       0x12 board/freescale/imx8mq_evk/built-in.o
 .comment       0x0000000000000011      0x2d0 cmd/built-in.o
 .comment       0x0000000000000011      0x29a common/built-in.o
 .comment       0x0000000000000011       0x24 disk/built-in.o
 .comment       0x0000000000000011      0x288 drivers/built-in.o
 .comment       0x0000000000000011       0x24 drivers/gpio/built-in.o
 .comment       0x0000000000000011       0x24 drivers/i2c/built-in.o
 .comment       0x0000000000000011       0x6c drivers/mmc/built-in.o
 .comment       0x0000000000000011       0x24 drivers/mtd/built-in.o
 .comment       0x0000000000000011       0x48 drivers/mtd/spi/built-in.o
 .comment       0x0000000000000011       0x12 drivers/net/built-in.o
 .comment       0x0000000000000011       0x24 drivers/net/phy/built-in.o
 .comment       0x0000000000000011       0x24 drivers/power/pmic/built-in.o
 .comment       0x0000000000000011       0x48 drivers/power/regulator/built-in.o
 .comment       0x0000000000000011       0x24 drivers/serial/built-in.o
 .comment       0x0000000000000011       0x24 drivers/spi/built-in.o
 .comment       0x0000000000000011       0x36 drivers/usb/dwc3/built-in.o
 .comment       0x0000000000000011       0x5a drivers/usb/gadget/built-in.o
 .comment       0x0000000000000011       0x12 drivers/usb/gadget/udc/built-in.o
 .comment       0x0000000000000011       0x5a drivers/usb/host/built-in.o
 .comment       0x0000000000000011       0xa2 fs/built-in.o
 .comment       0x0000000000000011      0x3ba lib/built-in.o
 .comment       0x0000000000000011       0xa2 net/built-in.o
 .comment       0x0000000000000011       0x12 test/dm/built-in.o

.note.GNU-stack
                0x0000000000000000        0x0
 .note.GNU-stack
                0x0000000000000000        0x0 arch/arm/cpu/armv8/built-in.o
 .note.GNU-stack
                0x0000000000000000        0x0 arch/arm/imx-common/built-in.o
 .note.GNU-stack
                0x0000000000000000        0x0 arch/arm/lib/built-in.o
 .note.GNU-stack
                0x0000000000000000        0x0 board/freescale/common/built-in.o
 .note.GNU-stack
                0x0000000000000000        0x0 board/freescale/imx8mq_evk/built-in.o
 .note.GNU-stack
                0x0000000000000000        0x0 cmd/built-in.o
 .note.GNU-stack
                0x0000000000000000        0x0 common/built-in.o
 .note.GNU-stack
                0x0000000000000000        0x0 disk/built-in.o
 .note.GNU-stack
                0x0000000000000000        0x0 drivers/built-in.o
 .note.GNU-stack
                0x0000000000000000        0x0 drivers/gpio/built-in.o
 .note.GNU-stack
                0x0000000000000000        0x0 drivers/i2c/built-in.o
 .note.GNU-stack
                0x0000000000000000        0x0 drivers/mmc/built-in.o
 .note.GNU-stack
                0x0000000000000000        0x0 drivers/mtd/built-in.o
 .note.GNU-stack
                0x0000000000000000        0x0 drivers/mtd/spi/built-in.o
 .note.GNU-stack
                0x0000000000000000        0x0 drivers/net/built-in.o
 .note.GNU-stack
                0x0000000000000000        0x0 drivers/net/phy/built-in.o
 .note.GNU-stack
                0x0000000000000000        0x0 drivers/power/pmic/built-in.o
 .note.GNU-stack
                0x0000000000000000        0x0 drivers/power/regulator/built-in.o
 .note.GNU-stack
                0x0000000000000000        0x0 drivers/serial/built-in.o
 .note.GNU-stack
                0x0000000000000000        0x0 drivers/spi/built-in.o
 .note.GNU-stack
                0x0000000000000000        0x0 drivers/usb/dwc3/built-in.o
 .note.GNU-stack
                0x0000000000000000        0x0 drivers/usb/gadget/built-in.o
 .note.GNU-stack
                0x0000000000000000        0x0 drivers/usb/gadget/udc/built-in.o
 .note.GNU-stack
                0x0000000000000000        0x0 drivers/usb/host/built-in.o
 .note.GNU-stack
                0x0000000000000000        0x0 fs/built-in.o
 .note.GNU-stack
                0x0000000000000000        0x0 lib/built-in.o
 .note.GNU-stack
                0x0000000000000000        0x0 net/built-in.o
 .note.GNU-stack
                0x0000000000000000        0x0 test/dm/built-in.o

.debug_frame    0x0000000000000000    0x1bba0
 .debug_frame   0x0000000000000000      0xd90 arch/arm/cpu/armv8/built-in.o
 .debug_frame   0x0000000000000d90      0x3b0 arch/arm/imx-common/built-in.o
 .debug_frame   0x0000000000001140      0x4d0 arch/arm/lib/built-in.o
 .debug_frame   0x0000000000001610      0x400 board/freescale/common/built-in.o
 .debug_frame   0x0000000000001a10      0x1f8 board/freescale/imx8mq_evk/built-in.o
 .debug_frame   0x0000000000001c08     0x2a78 cmd/built-in.o
 .debug_frame   0x0000000000004680     0x57a8 common/built-in.o
 .debug_frame   0x0000000000009e28      0x3b8 disk/built-in.o
 .debug_frame   0x000000000000a1e0     0x3358 drivers/built-in.o
 .debug_frame   0x000000000000d538      0x970 drivers/gpio/built-in.o
 .debug_frame   0x000000000000dea8      0x6b0 drivers/i2c/built-in.o
 .debug_frame   0x000000000000e558      0xd18 drivers/mmc/built-in.o
 .debug_frame   0x000000000000f270      0x4a0 drivers/mtd/built-in.o
 .debug_frame   0x000000000000f710      0x458 drivers/mtd/spi/built-in.o
 .debug_frame   0x000000000000fb68      0x370 drivers/net/built-in.o
 .debug_frame   0x000000000000fed8      0x510 drivers/net/phy/built-in.o
 .debug_frame   0x00000000000103e8      0x288 drivers/power/pmic/built-in.o
 .debug_frame   0x0000000000010670      0x808 drivers/power/regulator/built-in.o
 .debug_frame   0x0000000000010e78      0x430 drivers/serial/built-in.o
 .debug_frame   0x00000000000112a8      0x260 drivers/spi/built-in.o
 .debug_frame   0x0000000000011508      0xbc8 drivers/usb/dwc3/built-in.o
 .debug_frame   0x00000000000120d0      0xcd8 drivers/usb/gadget/built-in.o
 .debug_frame   0x0000000000012da8      0x1d8 drivers/usb/gadget/udc/built-in.o
 .debug_frame   0x0000000000012f80      0x9b8 drivers/usb/host/built-in.o
 .debug_frame   0x0000000000013938     0x1748 fs/built-in.o
 .debug_frame   0x0000000000015080     0x54e8 lib/built-in.o
 .debug_frame   0x000000000001a568     0x1578 net/built-in.o
 .debug_frame   0x000000000001bae0       0xc0 test/dm/built-in.o

.debug_loc      0x0000000000000000   0x120794
 .debug_loc     0x0000000000000000     0x611d arch/arm/cpu/armv8/built-in.o
 .debug_loc     0x000000000000611d     0x15f3 arch/arm/imx-common/built-in.o
 .debug_loc     0x0000000000007710      0xe16 arch/arm/lib/built-in.o
 .debug_loc     0x0000000000008526     0x2b37 board/freescale/common/built-in.o
 .debug_loc     0x000000000000b05d      0x8ed board/freescale/imx8mq_evk/built-in.o
 .debug_loc     0x000000000000b94a    0x20174 cmd/built-in.o
 .debug_loc     0x000000000002babe    0x2d474 common/built-in.o
 .debug_loc     0x0000000000058f32     0x26c2 disk/built-in.o
 .debug_loc     0x000000000005b5f4    0x206ff drivers/built-in.o
 .debug_loc     0x000000000007bcf3     0x3f96 drivers/gpio/built-in.o
 .debug_loc     0x000000000007fc89     0x3d90 drivers/i2c/built-in.o
 .debug_loc     0x0000000000083a19     0x889a drivers/mmc/built-in.o
 .debug_loc     0x000000000008c2b3     0x3067 drivers/mtd/built-in.o
 .debug_loc     0x000000000008f31a     0x2fef drivers/mtd/spi/built-in.o
 .debug_loc     0x0000000000092309     0x2cfd drivers/net/built-in.o
 .debug_loc     0x0000000000095006     0x31bf drivers/net/phy/built-in.o
 .debug_loc     0x00000000000981c5     0x1169 drivers/power/pmic/built-in.o
 .debug_loc     0x000000000009932e     0x3040 drivers/power/regulator/built-in.o
 .debug_loc     0x000000000009c36e      0xa92 drivers/serial/built-in.o
 .debug_loc     0x000000000009ce00     0x5127 drivers/spi/built-in.o
 .debug_loc     0x00000000000a1f27     0xf209 drivers/usb/dwc3/built-in.o
 .debug_loc     0x00000000000b1130     0xafb2 drivers/usb/gadget/built-in.o
 .debug_loc     0x00000000000bc0e2      0xc11 drivers/usb/gadget/udc/built-in.o
 .debug_loc     0x00000000000bccf3     0x87af drivers/usb/host/built-in.o
 .debug_loc     0x00000000000c54a2    0x1522f fs/built-in.o
 .debug_loc     0x00000000000da6d1    0x3c919 lib/built-in.o
 .debug_loc     0x0000000000116fea     0x9308 net/built-in.o
 .debug_loc     0x00000000001202f2      0x4a2 test/dm/built-in.o

.debug_ranges   0x0000000000000000    0x1e510
 .debug_ranges  0x0000000000000000      0xe70 arch/arm/cpu/armv8/built-in.o
 .debug_ranges  0x0000000000000e70      0x1e0 arch/arm/imx-common/built-in.o
 .debug_ranges  0x0000000000001050      0x260 arch/arm/lib/built-in.o
 .debug_ranges  0x00000000000012b0      0x610 board/freescale/common/built-in.o
 .debug_ranges  0x00000000000018c0      0x1d0 board/freescale/imx8mq_evk/built-in.o
 .debug_ranges  0x0000000000001a90     0x3120 cmd/built-in.o
 .debug_ranges  0x0000000000004bb0     0x4e80 common/built-in.o
 .debug_ranges  0x0000000000009a30      0x630 disk/built-in.o
 .debug_ranges  0x000000000000a060     0x33f0 drivers/built-in.o
 .debug_ranges  0x000000000000d450      0x5b0 drivers/gpio/built-in.o
 .debug_ranges  0x000000000000da00      0x740 drivers/i2c/built-in.o
 .debug_ranges  0x000000000000e140     0x14d0 drivers/mmc/built-in.o
 .debug_ranges  0x000000000000f610      0x380 drivers/mtd/built-in.o
 .debug_ranges  0x000000000000f990      0x6d0 drivers/mtd/spi/built-in.o
 .debug_ranges  0x0000000000010060      0x750 drivers/net/built-in.o
 .debug_ranges  0x00000000000107b0      0x980 drivers/net/phy/built-in.o
 .debug_ranges  0x0000000000011130       0xe0 drivers/power/pmic/built-in.o
 .debug_ranges  0x0000000000011210      0x3b0 drivers/power/regulator/built-in.o
 .debug_ranges  0x00000000000115c0      0x210 drivers/serial/built-in.o
 .debug_ranges  0x00000000000117d0      0xac0 drivers/spi/built-in.o
 .debug_ranges  0x0000000000012290     0x1dd0 drivers/usb/dwc3/built-in.o
 .debug_ranges  0x0000000000014060     0x18b0 drivers/usb/gadget/built-in.o
 .debug_ranges  0x0000000000015910      0x200 drivers/usb/gadget/udc/built-in.o
 .debug_ranges  0x0000000000015b10      0xbe0 drivers/usb/host/built-in.o
 .debug_ranges  0x00000000000166f0     0x2140 fs/built-in.o
 .debug_ranges  0x0000000000018830     0x46b0 lib/built-in.o
 .debug_ranges  0x000000000001cee0     0x15e0 net/built-in.o
 .debug_ranges  0x000000000001e4c0       0x50 test/dm/built-in.o
